	.text
	.file	"z31.dce"
	.globl	MemInit
	.align	16, 0x90
	.type	MemInit,@function
MemInit:                                # @MemInit
	.cfi_startproc
# BB#0:
	pushq	%rbp
.Ltmp0:
	.cfi_def_cfa_offset 16
.Ltmp1:
	.cfi_offset %rbp, -16
	movq	%rsp, %rbp
.Ltmp2:
	.cfi_def_cfa_register %rbp
	movb	$0, zz_lengths+11(%rip)
	movb	$0, zz_lengths+12(%rip)
	movb	$12, zz_lengths+99(%rip)
	movb	$12, zz_lengths+98(%rip)
	movb	$12, zz_lengths+97(%rip)
	movb	$12, zz_lengths+96(%rip)
	movb	$12, zz_lengths+95(%rip)
	movb	$12, zz_lengths+94(%rip)
	movb	$12, zz_lengths+93(%rip)
	movb	$12, zz_lengths+92(%rip)
	movb	$12, zz_lengths+91(%rip)
	movb	$12, zz_lengths+90(%rip)
	movb	$12, zz_lengths+89(%rip)
	movb	$12, zz_lengths+88(%rip)
	movb	$12, zz_lengths+87(%rip)
	movb	$12, zz_lengths+86(%rip)
	movb	$12, zz_lengths+85(%rip)
	movb	$12, zz_lengths+84(%rip)
	movb	$12, zz_lengths+83(%rip)
	movb	$12, zz_lengths+82(%rip)
	movb	$12, zz_lengths+81(%rip)
	movb	$12, zz_lengths+80(%rip)
	movb	$12, zz_lengths+79(%rip)
	movb	$12, zz_lengths+78(%rip)
	movb	$12, zz_lengths+77(%rip)
	movb	$12, zz_lengths+76(%rip)
	movb	$12, zz_lengths+75(%rip)
	movb	$12, zz_lengths+74(%rip)
	movb	$12, zz_lengths+73(%rip)
	movb	$12, zz_lengths+72(%rip)
	movb	$12, zz_lengths+71(%rip)
	movb	$12, zz_lengths+70(%rip)
	movb	$12, zz_lengths+69(%rip)
	movb	$12, zz_lengths+68(%rip)
	movb	$12, zz_lengths+67(%rip)
	movb	$12, zz_lengths+66(%rip)
	movb	$12, zz_lengths+65(%rip)
	movb	$12, zz_lengths+64(%rip)
	movb	$12, zz_lengths+63(%rip)
	movb	$12, zz_lengths+62(%rip)
	movb	$12, zz_lengths+61(%rip)
	movb	$12, zz_lengths+60(%rip)
	movb	$12, zz_lengths+59(%rip)
	movb	$12, zz_lengths+58(%rip)
	movb	$12, zz_lengths+57(%rip)
	movb	$12, zz_lengths+56(%rip)
	movb	$12, zz_lengths+55(%rip)
	movb	$12, zz_lengths+52(%rip)
	movb	$12, zz_lengths+54(%rip)
	movb	$12, zz_lengths+53(%rip)
	movb	$12, zz_lengths+51(%rip)
	movb	$12, zz_lengths+50(%rip)
	movb	$12, zz_lengths+49(%rip)
	movb	$12, zz_lengths+48(%rip)
	movb	$12, zz_lengths+47(%rip)
	movb	$12, zz_lengths+46(%rip)
	movb	$12, zz_lengths+45(%rip)
	movb	$12, zz_lengths+43(%rip)
	movb	$12, zz_lengths+42(%rip)
	movb	$12, zz_lengths+44(%rip)
	movb	$12, zz_lengths+41(%rip)
	movb	$12, zz_lengths+40(%rip)
	movb	$12, zz_lengths+39(%rip)
	movb	$12, zz_lengths+38(%rip)
	movb	$12, zz_lengths+37(%rip)
	movb	$12, zz_lengths+36(%rip)
	movb	$12, zz_lengths+35(%rip)
	movb	$12, zz_lengths+34(%rip)
	movb	$12, zz_lengths+33(%rip)
	movb	$12, zz_lengths+32(%rip)
	movb	$12, zz_lengths+31(%rip)
	movb	$12, zz_lengths+30(%rip)
	movb	$12, zz_lengths+29(%rip)
	movb	$12, zz_lengths+28(%rip)
	movb	$12, zz_lengths+27(%rip)
	movb	$12, zz_lengths+26(%rip)
	movb	$12, zz_lengths+25(%rip)
	movb	$12, zz_lengths+24(%rip)
	movb	$12, zz_lengths+23(%rip)
	movb	$12, zz_lengths+22(%rip)
	movb	$12, zz_lengths+21(%rip)
	movb	$12, zz_lengths+20(%rip)
	movb	$12, zz_lengths+19(%rip)
	movb	$12, zz_lengths+18(%rip)
	movb	$12, zz_lengths+17(%rip)
	movb	$12, zz_lengths+14(%rip)
	movb	$12, zz_lengths+13(%rip)
	movb	$12, zz_lengths+16(%rip)
	movb	$12, zz_lengths+15(%rip)
	movb	$12, zz_lengths+10(%rip)
	movb	$12, zz_lengths+9(%rip)
	movb	$21, zz_lengths+8(%rip)
	movb	$12, zz_lengths+149(%rip)
	movb	$12, zz_lengths+148(%rip)
	movb	$12, zz_lengths+139(%rip)
	movb	$12, zz_lengths+138(%rip)
	movb	$12, zz_lengths+137(%rip)
	movb	$12, zz_lengths+136(%rip)
	movb	$12, zz_lengths+135(%rip)
	movb	$12, zz_lengths+134(%rip)
	movb	$12, zz_lengths+133(%rip)
	movb	$12, zz_lengths+132(%rip)
	movb	$12, zz_lengths+131(%rip)
	movb	$12, zz_lengths+130(%rip)
	movb	$12, zz_lengths+129(%rip)
	movb	$12, zz_lengths+128(%rip)
	movb	$12, zz_lengths+127(%rip)
	movb	$12, zz_lengths+125(%rip)
	movb	$12, zz_lengths+124(%rip)
	movb	$12, zz_lengths+123(%rip)
	movb	$12, zz_lengths+122(%rip)
	movb	$12, zz_lengths+121(%rip)
	movb	$12, zz_lengths+120(%rip)
	movb	$12, zz_lengths+119(%rip)
	movb	$12, zz_lengths+117(%rip)
	movb	$12, zz_lengths+116(%rip)
	movb	$12, zz_lengths+115(%rip)
	movb	$12, zz_lengths+114(%rip)
	movb	$12, zz_lengths+111(%rip)
	movb	$12, zz_lengths+110(%rip)
	movb	$12, zz_lengths+109(%rip)
	movb	$12, zz_lengths+108(%rip)
	movb	$12, zz_lengths+107(%rip)
	movb	$12, zz_lengths+106(%rip)
	movb	$12, zz_lengths+105(%rip)
	movb	$12, zz_lengths+104(%rip)
	movb	$12, zz_lengths+103(%rip)
	movb	$12, zz_lengths+102(%rip)
	movb	$16, zz_lengths+145(%rip)
	movb	$16, zz_lengths+146(%rip)
	movb	$16, zz_lengths+144(%rip)
	movb	$16, zz_lengths+143(%rip)
	movb	$16, zz_lengths+142(%rip)
	movabsq	$868082074056919301, %rax # imm = 0xC0C0C0C0C0C0905
	movq	%rax, zz_lengths(%rip)
	movw	$2313, zz_lengths+100(%rip) # imm = 0x909
	movw	$2827, zz_lengths+140(%rip) # imm = 0xB0B
	movb	$8, zz_lengths+147(%rip)
	popq	%rbp
	retq
.Lfunc_end0:
	.size	MemInit, .Lfunc_end0-MemInit
	.cfi_endproc

	.globl	GetMemory
	.align	16, 0x90
	.type	GetMemory,@function
GetMemory:                              # @GetMemory
	.cfi_startproc
# BB#0:
	pushq	%rbp
.Ltmp3:
	.cfi_def_cfa_offset 16
.Ltmp4:
	.cfi_offset %rbp, -16
	movq	%rsp, %rbp
.Ltmp5:
	.cfi_def_cfa_register %rbp
	subq	$32, %rsp
	movl	%edi, -4(%rbp)
	movq	%rsi, -16(%rbp)
	movslq	-4(%rbp), %rax
	shlq	$3, %rax
	addq	GetMemory.next_free(%rip), %rax
	cmpq	GetMemory.top_free(%rip), %rax
	jbe	.LBB1_4
# BB#1:
	movl	$1020, %edi             # imm = 0x3FC
	movl	$8, %esi
	callq	calloc
	movq	%rax, GetMemory.next_free(%rip)
	testq	%rax, %rax
	jne	.LBB1_3
# BB#2:
	movq	-16(%rbp), %r8
	movl	$31, %edi
	movl	$1, %esi
	movl	$.L.str, %edx
	movl	$1, %ecx
	xorl	%eax, %eax
	callq	Error
.LBB1_3:
	movl	$8160, %eax             # imm = 0x1FE0
	addq	GetMemory.next_free(%rip), %rax
	movq	%rax, GetMemory.top_free(%rip)
.LBB1_4:
	movq	GetMemory.next_free(%rip), %rax
	movq	%rax, -24(%rbp)
	movslq	-4(%rbp), %rax
	shlq	$3, %rax
	addq	%rax, GetMemory.next_free(%rip)
	movq	-24(%rbp), %rax
	addq	$32, %rsp
	popq	%rbp
	retq
.Lfunc_end1:
	.size	GetMemory, .Lfunc_end1-GetMemory
	.cfi_endproc

	.type	zz_lengths,@object      # @zz_lengths
	.comm	zz_lengths,150,16
	.type	GetMemory.next_free,@object # @GetMemory.next_free
	.local	GetMemory.next_free
	.comm	GetMemory.next_free,8,8
	.type	GetMemory.top_free,@object # @GetMemory.top_free
	.local	GetMemory.top_free
	.comm	GetMemory.top_free,8,8
	.type	.L.str,@object          # @.str
	.section	.rodata.str1.1,"aMS",@progbits,1
.L.str:
	.asciz	"exiting now (run out of memory)"
	.size	.L.str, 32

	.type	zz_free,@object         # @zz_free
	.comm	zz_free,2120,16
	.type	zz_hold,@object         # @zz_hold
	.comm	zz_hold,8,8
	.type	zz_tmp,@object          # @zz_tmp
	.comm	zz_tmp,8,8
	.type	zz_res,@object          # @zz_res
	.comm	zz_res,8,8
	.type	zz_size,@object         # @zz_size
	.comm	zz_size,4,4
	.type	xx_link,@object         # @xx_link
	.comm	xx_link,8,8
	.type	xx_tmp,@object          # @xx_tmp
	.comm	xx_tmp,8,8
	.type	xx_res,@object          # @xx_res
	.comm	xx_res,8,8
	.type	xx_hold,@object         # @xx_hold
	.comm	xx_hold,8,8

	.ident	"Ubuntu clang version 3.7.0-2ubuntu1 (tags/RELEASE_370/final) (based on LLVM 3.7.0)"
	.section	".note.GNU-stack","",@progbits
