	.text
	.file	"z35.opt"
	.globl	TimeString
	.align	16, 0x90
	.type	TimeString,@function
TimeString:                             # @TimeString
	.cfi_startproc
# BB#0:
	pushq	%rbp
.Ltmp0:
	.cfi_def_cfa_offset 16
.Ltmp1:
	.cfi_offset %rbp, -16
	movq	%rsp, %rbp
.Ltmp2:
	.cfi_def_cfa_register %rbp
	movl	$time_string, %eax
	popq	%rbp
	retq
.Lfunc_end0:
	.size	TimeString, .Lfunc_end0-TimeString
	.cfi_endproc

	.globl	InitTime
	.align	16, 0x90
	.type	InitTime,@function
InitTime:                               # @InitTime
	.cfi_startproc
# BB#0:
	pushq	%rbp
.Ltmp3:
	.cfi_def_cfa_offset 16
.Ltmp4:
	.cfi_offset %rbp, -16
	movq	%rsp, %rbp
.Ltmp5:
	.cfi_def_cfa_register %rbp
	pushq	%r14
	pushq	%rbx
	subq	$192, %rsp
.Ltmp6:
	.cfi_offset %rbx, -32
.Ltmp7:
	.cfi_offset %r14, -24
	movq	no_fpos(%rip), %rbx
	movq	StartSym(%rip), %r14
	movl	$11, %edi
	movl	$.L.str.1, %esi
	movq	%rbx, %rdx
	callq	MakeWord
	movq	%rax, 16(%rsp)
	movq	%r14, 8(%rsp)
	movl	$0, (%rsp)
	movl	$.L.str, %edi
	movl	$143, %esi
	movl	$100, %ecx
	xorl	%r8d, %r8d
	xorl	%r9d, %r9d
	movq	%rbx, %rdx
	callq	InsertSym
	movq	%rax, %rbx
	movq	%rbx, -88(%rbp)
	movq	%rbx, MomentSym(%rip)
	movq	no_fpos(%rip), %r14
	movl	$11, %edi
	movl	$.L.str.1, %esi
	movq	%r14, %rdx
	callq	MakeWord
	movq	%rax, 16(%rsp)
	movq	%rbx, 8(%rsp)
	movl	$0, (%rsp)
	movl	$.L.str.2, %edi
	movl	$145, %esi
	movl	$100, %ecx
	xorl	%r8d, %r8d
	xorl	%r9d, %r9d
	movq	%r14, %rdx
	callq	InsertSym
	movq	%rax, -88(%rbp)
	movq	%rax, -104(%rbp)
	movq	-88(%rbp), %rax
	movzbl	43(%rax), %ecx
	movzwl	41(%rax), %edx
	movw	%dx, 41(%rax)
	orl	$1, %ecx
	movb	%cl, 43(%rax)
	movq	no_fpos(%rip), %rbx
	movq	MomentSym(%rip), %r14
	movl	$11, %edi
	movl	$.L.str.1, %esi
	movq	%rbx, %rdx
	callq	MakeWord
	movq	%rax, 16(%rsp)
	movq	%r14, 8(%rsp)
	movl	$0, (%rsp)
	movl	$.L.str.3, %edi
	movl	$145, %esi
	movl	$100, %ecx
	xorl	%r8d, %r8d
	xorl	%r9d, %r9d
	movq	%rbx, %rdx
	callq	InsertSym
	movq	%rax, -88(%rbp)
	movq	%rax, -112(%rbp)
	movq	-88(%rbp), %rax
	movzbl	43(%rax), %ecx
	movzwl	41(%rax), %edx
	movw	%dx, 41(%rax)
	orl	$1, %ecx
	movb	%cl, 43(%rax)
	movq	no_fpos(%rip), %rbx
	movq	MomentSym(%rip), %r14
	movl	$11, %edi
	movl	$.L.str.1, %esi
	movq	%rbx, %rdx
	callq	MakeWord
	movq	%rax, 16(%rsp)
	movq	%r14, 8(%rsp)
	movl	$0, (%rsp)
	movl	$.L.str.4, %edi
	movl	$145, %esi
	movl	$100, %ecx
	xorl	%r8d, %r8d
	xorl	%r9d, %r9d
	movq	%rbx, %rdx
	callq	InsertSym
	movq	%rax, -88(%rbp)
	movq	%rax, -120(%rbp)
	movq	-88(%rbp), %rax
	movzbl	43(%rax), %ecx
	movzwl	41(%rax), %edx
	movw	%dx, 41(%rax)
	orl	$1, %ecx
	movb	%cl, 43(%rax)
	movq	no_fpos(%rip), %rbx
	movq	MomentSym(%rip), %r14
	movl	$11, %edi
	movl	$.L.str.1, %esi
	movq	%rbx, %rdx
	callq	MakeWord
	movq	%rax, 16(%rsp)
	movq	%r14, 8(%rsp)
	movl	$0, (%rsp)
	movl	$.L.str.5, %edi
	movl	$145, %esi
	movl	$100, %ecx
	xorl	%r8d, %r8d
	xorl	%r9d, %r9d
	movq	%rbx, %rdx
	callq	InsertSym
	movq	%rax, -88(%rbp)
	movq	%rax, -128(%rbp)
	movq	-88(%rbp), %rax
	movzbl	43(%rax), %ecx
	movzwl	41(%rax), %edx
	movw	%dx, 41(%rax)
	orl	$1, %ecx
	movb	%cl, 43(%rax)
	movq	no_fpos(%rip), %rbx
	movq	MomentSym(%rip), %r14
	movl	$11, %edi
	movl	$.L.str.1, %esi
	movq	%rbx, %rdx
	callq	MakeWord
	movq	%rax, 16(%rsp)
	movq	%r14, 8(%rsp)
	movl	$0, (%rsp)
	movl	$.L.str.6, %edi
	movl	$145, %esi
	movl	$100, %ecx
	xorl	%r8d, %r8d
	xorl	%r9d, %r9d
	movq	%rbx, %rdx
	callq	InsertSym
	movq	%rax, -88(%rbp)
	movq	%rax, -144(%rbp)
	movq	-88(%rbp), %rax
	movzbl	43(%rax), %ecx
	movzwl	41(%rax), %edx
	movw	%dx, 41(%rax)
	orl	$1, %ecx
	movb	%cl, 43(%rax)
	movq	no_fpos(%rip), %rbx
	movq	MomentSym(%rip), %r14
	movl	$11, %edi
	movl	$.L.str.1, %esi
	movq	%rbx, %rdx
	callq	MakeWord
	movq	%rax, 16(%rsp)
	movq	%r14, 8(%rsp)
	movl	$0, (%rsp)
	movl	$.L.str.7, %edi
	movl	$145, %esi
	movl	$100, %ecx
	xorl	%r8d, %r8d
	xorl	%r9d, %r9d
	movq	%rbx, %rdx
	callq	InsertSym
	movq	%rax, -88(%rbp)
	movq	%rax, -160(%rbp)
	movq	-88(%rbp), %rax
	movzbl	43(%rax), %ecx
	movzwl	41(%rax), %edx
	movw	%dx, 41(%rax)
	orl	$1, %ecx
	movb	%cl, 43(%rax)
	movq	no_fpos(%rip), %rbx
	movq	MomentSym(%rip), %r14
	movl	$11, %edi
	movl	$.L.str.1, %esi
	movq	%rbx, %rdx
	callq	MakeWord
	movq	%rax, 16(%rsp)
	movq	%r14, 8(%rsp)
	movl	$0, (%rsp)
	movl	$.L.str.8, %edi
	movl	$145, %esi
	movl	$100, %ecx
	xorl	%r8d, %r8d
	xorl	%r9d, %r9d
	movq	%rbx, %rdx
	callq	InsertSym
	movq	%rax, -88(%rbp)
	movq	%rax, -168(%rbp)
	movq	-88(%rbp), %rax
	movzbl	43(%rax), %ecx
	movzwl	41(%rax), %edx
	movw	%dx, 41(%rax)
	orl	$1, %ecx
	movb	%cl, 43(%rax)
	movq	no_fpos(%rip), %rbx
	movq	MomentSym(%rip), %r14
	movl	$11, %edi
	movl	$.L.str.1, %esi
	movq	%rbx, %rdx
	callq	MakeWord
	movq	%rax, 16(%rsp)
	movq	%r14, 8(%rsp)
	movl	$0, (%rsp)
	movl	$.L.str.9, %edi
	movl	$145, %esi
	movl	$100, %ecx
	xorl	%r8d, %r8d
	xorl	%r9d, %r9d
	movq	%rbx, %rdx
	callq	InsertSym
	movq	%rax, -88(%rbp)
	movq	%rax, -176(%rbp)
	movq	-88(%rbp), %rax
	movzbl	43(%rax), %ecx
	movzwl	41(%rax), %edx
	movw	%dx, 41(%rax)
	orl	$1, %ecx
	movb	%cl, 43(%rax)
	movq	no_fpos(%rip), %rbx
	movq	MomentSym(%rip), %r14
	movl	$11, %edi
	movl	$.L.str.1, %esi
	movq	%rbx, %rdx
	callq	MakeWord
	movq	%rax, 16(%rsp)
	movq	%r14, 8(%rsp)
	movl	$0, (%rsp)
	movl	$.L.str.10, %edi
	movl	$145, %esi
	movl	$100, %ecx
	xorl	%r8d, %r8d
	xorl	%r9d, %r9d
	movq	%rbx, %rdx
	callq	InsertSym
	movq	%rax, -88(%rbp)
	movq	%rax, -136(%rbp)
	movq	-88(%rbp), %rax
	movzbl	43(%rax), %ecx
	movzwl	41(%rax), %edx
	movw	%dx, 41(%rax)
	orl	$1, %ecx
	movb	%cl, 43(%rax)
	movq	no_fpos(%rip), %rbx
	movq	MomentSym(%rip), %r14
	movl	$11, %edi
	movl	$.L.str.1, %esi
	movq	%rbx, %rdx
	callq	MakeWord
	movq	%rax, 16(%rsp)
	movq	%r14, 8(%rsp)
	movl	$0, (%rsp)
	movl	$.L.str.11, %edi
	movl	$145, %esi
	movl	$100, %ecx
	xorl	%r8d, %r8d
	xorl	%r9d, %r9d
	movq	%rbx, %rdx
	callq	InsertSym
	movq	%rax, -88(%rbp)
	movq	%rax, -152(%rbp)
	movq	-88(%rbp), %rax
	movzbl	43(%rax), %ecx
	movzwl	41(%rax), %edx
	movw	%dx, 41(%rax)
	orl	$1, %ecx
	movb	%cl, 43(%rax)
	movq	no_fpos(%rip), %rbx
	movq	MomentSym(%rip), %r14
	movl	$11, %edi
	movl	$.L.str.1, %esi
	movq	%rbx, %rdx
	callq	MakeWord
	movq	%rax, 16(%rsp)
	movq	%r14, 8(%rsp)
	movl	$0, (%rsp)
	movl	$.L.str.12, %edi
	movl	$145, %esi
	movl	$100, %ecx
	xorl	%r8d, %r8d
	xorl	%r9d, %r9d
	movq	%rbx, %rdx
	callq	InsertSym
	movq	%rax, -88(%rbp)
	movq	%rax, -184(%rbp)
	movq	-88(%rbp), %rax
	movzbl	43(%rax), %ecx
	movzwl	41(%rax), %edx
	movw	%dx, 41(%rax)
	orl	$1, %ecx
	movb	%cl, 43(%rax)
	leaq	-24(%rbp), %rdi
	callq	time
	cmpq	$-1, %rax
	jne	.LBB1_2
# BB#1:
	movq	no_fpos(%rip), %r8
	movl	$35, %edi
	movl	$1, %esi
	movl	$.L.str.13, %edx
	movl	$2, %ecx
	xorl	%eax, %eax
	callq	Error
.LBB1_2:
	leaq	-24(%rbp), %rdi
	callq	localtime
	movq	%rax, -32(%rbp)
	movq	%rax, %rdi
	callq	asctime
	movl	$time_string, %edi
	movq	%rax, %rsi
	callq	strcpy
	movzbl	zz_lengths+2(%rip), %eax
	movl	%eax, zz_size(%rip)
	movb	$1, %al
	testb	%al, %al
	jne	.LBB1_4
# BB#3:
	movq	no_fpos(%rip), %r8
	movl	$1, %edi
	movl	$1, %esi
	movl	$.L.str.14, %edx
	movl	$1, %ecx
	xorl	%eax, %eax
	callq	Error
	jmp	.LBB1_7
.LBB1_4:
	movslq	zz_size(%rip), %rax
	cmpq	$0, zz_free(,%rax,8)
	je	.LBB1_5
# BB#6:
	movslq	zz_size(%rip), %rax
	movq	zz_free(,%rax,8), %rax
	movq	%rax, zz_hold(%rip)
	movq	(%rax), %rax
	movslq	zz_size(%rip), %rcx
	movq	%rax, zz_free(,%rcx,8)
	jmp	.LBB1_7
.LBB1_5:
	movl	zz_size(%rip), %edi
	movq	no_fpos(%rip), %rsi
	callq	GetMemory
	movq	%rax, zz_hold(%rip)
.LBB1_7:
	movq	zz_hold(%rip), %rax
	movb	$2, 32(%rax)
	movq	zz_hold(%rip), %rax
	movq	%rax, 24(%rax)
	movq	zz_hold(%rip), %rcx
	movq	%rax, 16(%rcx)
	movq	zz_hold(%rip), %rcx
	movq	%rax, 8(%rcx)
	movq	zz_hold(%rip), %rcx
	movq	%rax, (%rcx)
	movq	%rax, current_moment(%rip)
	movq	MomentSym(%rip), %rcx
	movq	%rcx, 80(%rax)
	leaq	-64(%rbp), %rdi
	movl	$.L.str.15, %esi
	movl	$.L.str.16, %edx
	xorl	%eax, %eax
	callq	sprintf
	movzbl	zz_lengths+10(%rip), %eax
	movl	%eax, zz_size(%rip)
	movb	$1, %al
	testb	%al, %al
	jne	.LBB1_9
# BB#8:
	movq	no_fpos(%rip), %r8
	movl	$1, %edi
	movl	$1, %esi
	movl	$.L.str.14, %edx
	movl	$1, %ecx
	xorl	%eax, %eax
	callq	Error
	jmp	.LBB1_12
.LBB1_9:
	movslq	zz_size(%rip), %rax
	cmpq	$0, zz_free(,%rax,8)
	je	.LBB1_10
# BB#11:
	movslq	zz_size(%rip), %rax
	movq	zz_free(,%rax,8), %rax
	movq	%rax, zz_hold(%rip)
	movq	(%rax), %rax
	movslq	zz_size(%rip), %rcx
	movq	%rax, zz_free(,%rcx,8)
	jmp	.LBB1_12
.LBB1_10:
	movl	zz_size(%rip), %edi
	movq	no_fpos(%rip), %rsi
	callq	GetMemory
	movq	%rax, zz_hold(%rip)
.LBB1_12:
	movq	zz_hold(%rip), %rax
	movb	$10, 32(%rax)
	movq	zz_hold(%rip), %rax
	movq	%rax, 24(%rax)
	movq	zz_hold(%rip), %rcx
	movq	%rax, 16(%rcx)
	movq	zz_hold(%rip), %rcx
	movq	%rax, 8(%rcx)
	movq	zz_hold(%rip), %rcx
	movq	%rax, (%rcx)
	movq	%rax, -72(%rbp)
	movq	-104(%rbp), %rcx
	movq	%rcx, 80(%rax)
	movzbl	zz_lengths(%rip), %eax
	movl	%eax, zz_size(%rip)
	movb	$1, %al
	testb	%al, %al
	jne	.LBB1_14
# BB#13:
	movq	no_fpos(%rip), %r8
	movl	$1, %edi
	movl	$1, %esi
	movl	$.L.str.14, %edx
	movl	$1, %ecx
	xorl	%eax, %eax
	callq	Error
	jmp	.LBB1_17
.LBB1_14:
	movslq	zz_size(%rip), %rax
	cmpq	$0, zz_free(,%rax,8)
	je	.LBB1_15
# BB#16:
	movslq	zz_size(%rip), %rax
	movq	zz_free(,%rax,8), %rax
	movq	%rax, zz_hold(%rip)
	movq	(%rax), %rax
	movslq	zz_size(%rip), %rcx
	movq	%rax, zz_free(,%rcx,8)
	jmp	.LBB1_17
.LBB1_15:
	movl	zz_size(%rip), %edi
	movq	no_fpos(%rip), %rsi
	callq	GetMemory
	movq	%rax, zz_hold(%rip)
.LBB1_17:
	movq	zz_hold(%rip), %rax
	movb	$0, 32(%rax)
	movq	zz_hold(%rip), %rax
	movq	%rax, 24(%rax)
	movq	zz_hold(%rip), %rcx
	movq	%rax, 16(%rcx)
	movq	zz_hold(%rip), %rcx
	movq	%rax, 8(%rcx)
	movq	zz_hold(%rip), %rcx
	movq	%rax, (%rcx)
	movq	%rax, xx_link(%rip)
	movq	%rax, zz_res(%rip)
	movq	current_moment(%rip), %rax
	movq	%rax, zz_hold(%rip)
	testq	%rax, %rax
	je	.LBB1_20
# BB#18:
	cmpq	$0, zz_res(%rip)
	je	.LBB1_20
# BB#19:
	movq	zz_hold(%rip), %rax
	movq	(%rax), %rax
	movq	%rax, zz_tmp(%rip)
	movq	zz_res(%rip), %rax
	movq	(%rax), %rax
	movq	zz_hold(%rip), %rcx
	movq	%rax, (%rcx)
	movq	zz_hold(%rip), %rax
	movq	zz_res(%rip), %rcx
	movq	(%rcx), %rcx
	movq	%rax, 8(%rcx)
	movq	zz_tmp(%rip), %rax
	movq	zz_res(%rip), %rcx
	movq	%rax, (%rcx)
	movq	zz_res(%rip), %rax
	movq	zz_tmp(%rip), %rcx
	movq	%rax, 8(%rcx)
.LBB1_20:
	movq	xx_link(%rip), %rax
	movq	%rax, zz_res(%rip)
	movq	-72(%rbp), %rax
	movq	%rax, zz_hold(%rip)
	testq	%rax, %rax
	je	.LBB1_23
# BB#21:
	cmpq	$0, zz_res(%rip)
	je	.LBB1_23
# BB#22:
	movq	zz_hold(%rip), %rax
	movq	16(%rax), %rax
	movq	%rax, zz_tmp(%rip)
	movq	zz_res(%rip), %rax
	movq	16(%rax), %rax
	movq	zz_hold(%rip), %rcx
	movq	%rax, 16(%rcx)
	movq	zz_hold(%rip), %rax
	movq	zz_res(%rip), %rcx
	movq	16(%rcx), %rcx
	movq	%rax, 24(%rcx)
	movq	zz_tmp(%rip), %rax
	movq	zz_res(%rip), %rcx
	movq	%rax, 16(%rcx)
	movq	zz_res(%rip), %rax
	movq	zz_tmp(%rip), %rcx
	movq	%rax, 24(%rcx)
.LBB1_23:
	movq	no_fpos(%rip), %rdx
	leaq	-64(%rbp), %rsi
	movl	$11, %edi
	callq	MakeWord
	movq	%rax, -80(%rbp)
	movzbl	zz_lengths(%rip), %eax
	movl	%eax, zz_size(%rip)
	movb	$1, %al
	testb	%al, %al
	jne	.LBB1_25
# BB#24:
	movq	no_fpos(%rip), %r8
	movl	$1, %edi
	movl	$1, %esi
	movl	$.L.str.14, %edx
	movl	$1, %ecx
	xorl	%eax, %eax
	callq	Error
	jmp	.LBB1_28
.LBB1_25:
	movslq	zz_size(%rip), %rax
	cmpq	$0, zz_free(,%rax,8)
	je	.LBB1_26
# BB#27:
	movslq	zz_size(%rip), %rax
	movq	zz_free(,%rax,8), %rax
	movq	%rax, zz_hold(%rip)
	movq	(%rax), %rax
	movslq	zz_size(%rip), %rcx
	movq	%rax, zz_free(,%rcx,8)
	jmp	.LBB1_28
.LBB1_26:
	movl	zz_size(%rip), %edi
	movq	no_fpos(%rip), %rsi
	callq	GetMemory
	movq	%rax, zz_hold(%rip)
.LBB1_28:
	movq	zz_hold(%rip), %rax
	movb	$0, 32(%rax)
	movq	zz_hold(%rip), %rax
	movq	%rax, 24(%rax)
	movq	zz_hold(%rip), %rcx
	movq	%rax, 16(%rcx)
	movq	zz_hold(%rip), %rcx
	movq	%rax, 8(%rcx)
	movq	zz_hold(%rip), %rcx
	movq	%rax, (%rcx)
	movq	%rax, xx_link(%rip)
	movq	%rax, zz_res(%rip)
	movq	-72(%rbp), %rax
	movq	%rax, zz_hold(%rip)
	testq	%rax, %rax
	je	.LBB1_31
# BB#29:
	cmpq	$0, zz_res(%rip)
	je	.LBB1_31
# BB#30:
	movq	zz_hold(%rip), %rax
	movq	(%rax), %rax
	movq	%rax, zz_tmp(%rip)
	movq	zz_res(%rip), %rax
	movq	(%rax), %rax
	movq	zz_hold(%rip), %rcx
	movq	%rax, (%rcx)
	movq	zz_hold(%rip), %rax
	movq	zz_res(%rip), %rcx
	movq	(%rcx), %rcx
	movq	%rax, 8(%rcx)
	movq	zz_tmp(%rip), %rax
	movq	zz_res(%rip), %rcx
	movq	%rax, (%rcx)
	movq	zz_res(%rip), %rax
	movq	zz_tmp(%rip), %rcx
	movq	%rax, 8(%rcx)
.LBB1_31:
	movq	xx_link(%rip), %rax
	movq	%rax, zz_res(%rip)
	movq	-80(%rbp), %rax
	movq	%rax, zz_hold(%rip)
	testq	%rax, %rax
	je	.LBB1_34
# BB#32:
	cmpq	$0, zz_res(%rip)
	je	.LBB1_34
# BB#33:
	movq	zz_hold(%rip), %rax
	movq	16(%rax), %rax
	movq	%rax, zz_tmp(%rip)
	movq	zz_res(%rip), %rax
	movq	16(%rax), %rax
	movq	zz_hold(%rip), %rcx
	movq	%rax, 16(%rcx)
	movq	zz_hold(%rip), %rax
	movq	zz_res(%rip), %rcx
	movq	16(%rcx), %rcx
	movq	%rax, 24(%rcx)
	movq	zz_tmp(%rip), %rax
	movq	zz_res(%rip), %rcx
	movq	%rax, 16(%rcx)
	movq	zz_res(%rip), %rax
	movq	zz_tmp(%rip), %rcx
	movq	%rax, 24(%rcx)
.LBB1_34:
	movq	-32(%rbp), %rax
	movl	(%rax), %edx
	leaq	-64(%rbp), %rdi
	movl	$.L.str.17, %esi
	xorl	%eax, %eax
	callq	sprintf
	movzbl	zz_lengths+10(%rip), %eax
	movl	%eax, zz_size(%rip)
	movb	$1, %al
	testb	%al, %al
	jne	.LBB1_36
# BB#35:
	movq	no_fpos(%rip), %r8
	movl	$1, %edi
	movl	$1, %esi
	movl	$.L.str.14, %edx
	movl	$1, %ecx
	xorl	%eax, %eax
	callq	Error
	jmp	.LBB1_39
.LBB1_36:
	movslq	zz_size(%rip), %rax
	cmpq	$0, zz_free(,%rax,8)
	je	.LBB1_37
# BB#38:
	movslq	zz_size(%rip), %rax
	movq	zz_free(,%rax,8), %rax
	movq	%rax, zz_hold(%rip)
	movq	(%rax), %rax
	movslq	zz_size(%rip), %rcx
	movq	%rax, zz_free(,%rcx,8)
	jmp	.LBB1_39
.LBB1_37:
	movl	zz_size(%rip), %edi
	movq	no_fpos(%rip), %rsi
	callq	GetMemory
	movq	%rax, zz_hold(%rip)
.LBB1_39:
	movq	zz_hold(%rip), %rax
	movb	$10, 32(%rax)
	movq	zz_hold(%rip), %rax
	movq	%rax, 24(%rax)
	movq	zz_hold(%rip), %rcx
	movq	%rax, 16(%rcx)
	movq	zz_hold(%rip), %rcx
	movq	%rax, 8(%rcx)
	movq	zz_hold(%rip), %rcx
	movq	%rax, (%rcx)
	movq	%rax, -72(%rbp)
	movq	-112(%rbp), %rcx
	movq	%rcx, 80(%rax)
	movzbl	zz_lengths(%rip), %eax
	movl	%eax, zz_size(%rip)
	movb	$1, %al
	testb	%al, %al
	jne	.LBB1_41
# BB#40:
	movq	no_fpos(%rip), %r8
	movl	$1, %edi
	movl	$1, %esi
	movl	$.L.str.14, %edx
	movl	$1, %ecx
	xorl	%eax, %eax
	callq	Error
	jmp	.LBB1_44
.LBB1_41:
	movslq	zz_size(%rip), %rax
	cmpq	$0, zz_free(,%rax,8)
	je	.LBB1_42
# BB#43:
	movslq	zz_size(%rip), %rax
	movq	zz_free(,%rax,8), %rax
	movq	%rax, zz_hold(%rip)
	movq	(%rax), %rax
	movslq	zz_size(%rip), %rcx
	movq	%rax, zz_free(,%rcx,8)
	jmp	.LBB1_44
.LBB1_42:
	movl	zz_size(%rip), %edi
	movq	no_fpos(%rip), %rsi
	callq	GetMemory
	movq	%rax, zz_hold(%rip)
.LBB1_44:
	movq	zz_hold(%rip), %rax
	movb	$0, 32(%rax)
	movq	zz_hold(%rip), %rax
	movq	%rax, 24(%rax)
	movq	zz_hold(%rip), %rcx
	movq	%rax, 16(%rcx)
	movq	zz_hold(%rip), %rcx
	movq	%rax, 8(%rcx)
	movq	zz_hold(%rip), %rcx
	movq	%rax, (%rcx)
	movq	%rax, xx_link(%rip)
	movq	%rax, zz_res(%rip)
	movq	current_moment(%rip), %rax
	movq	%rax, zz_hold(%rip)
	testq	%rax, %rax
	je	.LBB1_47
# BB#45:
	cmpq	$0, zz_res(%rip)
	je	.LBB1_47
# BB#46:
	movq	zz_hold(%rip), %rax
	movq	(%rax), %rax
	movq	%rax, zz_tmp(%rip)
	movq	zz_res(%rip), %rax
	movq	(%rax), %rax
	movq	zz_hold(%rip), %rcx
	movq	%rax, (%rcx)
	movq	zz_hold(%rip), %rax
	movq	zz_res(%rip), %rcx
	movq	(%rcx), %rcx
	movq	%rax, 8(%rcx)
	movq	zz_tmp(%rip), %rax
	movq	zz_res(%rip), %rcx
	movq	%rax, (%rcx)
	movq	zz_res(%rip), %rax
	movq	zz_tmp(%rip), %rcx
	movq	%rax, 8(%rcx)
.LBB1_47:
	movq	xx_link(%rip), %rax
	movq	%rax, zz_res(%rip)
	movq	-72(%rbp), %rax
	movq	%rax, zz_hold(%rip)
	testq	%rax, %rax
	je	.LBB1_50
# BB#48:
	cmpq	$0, zz_res(%rip)
	je	.LBB1_50
# BB#49:
	movq	zz_hold(%rip), %rax
	movq	16(%rax), %rax
	movq	%rax, zz_tmp(%rip)
	movq	zz_res(%rip), %rax
	movq	16(%rax), %rax
	movq	zz_hold(%rip), %rcx
	movq	%rax, 16(%rcx)
	movq	zz_hold(%rip), %rax
	movq	zz_res(%rip), %rcx
	movq	16(%rcx), %rcx
	movq	%rax, 24(%rcx)
	movq	zz_tmp(%rip), %rax
	movq	zz_res(%rip), %rcx
	movq	%rax, 16(%rcx)
	movq	zz_res(%rip), %rax
	movq	zz_tmp(%rip), %rcx
	movq	%rax, 24(%rcx)
.LBB1_50:
	movq	no_fpos(%rip), %rdx
	leaq	-64(%rbp), %rsi
	movl	$11, %edi
	callq	MakeWord
	movq	%rax, -80(%rbp)
	movzbl	zz_lengths(%rip), %eax
	movl	%eax, zz_size(%rip)
	movb	$1, %al
	testb	%al, %al
	jne	.LBB1_52
# BB#51:
	movq	no_fpos(%rip), %r8
	movl	$1, %edi
	movl	$1, %esi
	movl	$.L.str.14, %edx
	movl	$1, %ecx
	xorl	%eax, %eax
	callq	Error
	jmp	.LBB1_55
.LBB1_52:
	movslq	zz_size(%rip), %rax
	cmpq	$0, zz_free(,%rax,8)
	je	.LBB1_53
# BB#54:
	movslq	zz_size(%rip), %rax
	movq	zz_free(,%rax,8), %rax
	movq	%rax, zz_hold(%rip)
	movq	(%rax), %rax
	movslq	zz_size(%rip), %rcx
	movq	%rax, zz_free(,%rcx,8)
	jmp	.LBB1_55
.LBB1_53:
	movl	zz_size(%rip), %edi
	movq	no_fpos(%rip), %rsi
	callq	GetMemory
	movq	%rax, zz_hold(%rip)
.LBB1_55:
	movq	zz_hold(%rip), %rax
	movb	$0, 32(%rax)
	movq	zz_hold(%rip), %rax
	movq	%rax, 24(%rax)
	movq	zz_hold(%rip), %rcx
	movq	%rax, 16(%rcx)
	movq	zz_hold(%rip), %rcx
	movq	%rax, 8(%rcx)
	movq	zz_hold(%rip), %rcx
	movq	%rax, (%rcx)
	movq	%rax, xx_link(%rip)
	movq	%rax, zz_res(%rip)
	movq	-72(%rbp), %rax
	movq	%rax, zz_hold(%rip)
	testq	%rax, %rax
	je	.LBB1_58
# BB#56:
	cmpq	$0, zz_res(%rip)
	je	.LBB1_58
# BB#57:
	movq	zz_hold(%rip), %rax
	movq	(%rax), %rax
	movq	%rax, zz_tmp(%rip)
	movq	zz_res(%rip), %rax
	movq	(%rax), %rax
	movq	zz_hold(%rip), %rcx
	movq	%rax, (%rcx)
	movq	zz_hold(%rip), %rax
	movq	zz_res(%rip), %rcx
	movq	(%rcx), %rcx
	movq	%rax, 8(%rcx)
	movq	zz_tmp(%rip), %rax
	movq	zz_res(%rip), %rcx
	movq	%rax, (%rcx)
	movq	zz_res(%rip), %rax
	movq	zz_tmp(%rip), %rcx
	movq	%rax, 8(%rcx)
.LBB1_58:
	movq	xx_link(%rip), %rax
	movq	%rax, zz_res(%rip)
	movq	-80(%rbp), %rax
	movq	%rax, zz_hold(%rip)
	testq	%rax, %rax
	je	.LBB1_61
# BB#59:
	cmpq	$0, zz_res(%rip)
	je	.LBB1_61
# BB#60:
	movq	zz_hold(%rip), %rax
	movq	16(%rax), %rax
	movq	%rax, zz_tmp(%rip)
	movq	zz_res(%rip), %rax
	movq	16(%rax), %rax
	movq	zz_hold(%rip), %rcx
	movq	%rax, 16(%rcx)
	movq	zz_hold(%rip), %rax
	movq	zz_res(%rip), %rcx
	movq	16(%rcx), %rcx
	movq	%rax, 24(%rcx)
	movq	zz_tmp(%rip), %rax
	movq	zz_res(%rip), %rcx
	movq	%rax, 16(%rcx)
	movq	zz_res(%rip), %rax
	movq	zz_tmp(%rip), %rcx
	movq	%rax, 24(%rcx)
.LBB1_61:
	movq	-32(%rbp), %rax
	movl	4(%rax), %edx
	leaq	-64(%rbp), %rdi
	movl	$.L.str.17, %esi
	xorl	%eax, %eax
	callq	sprintf
	movzbl	zz_lengths+10(%rip), %eax
	movl	%eax, zz_size(%rip)
	movb	$1, %al
	testb	%al, %al
	jne	.LBB1_63
# BB#62:
	movq	no_fpos(%rip), %r8
	movl	$1, %edi
	movl	$1, %esi
	movl	$.L.str.14, %edx
	movl	$1, %ecx
	xorl	%eax, %eax
	callq	Error
	jmp	.LBB1_66
.LBB1_63:
	movslq	zz_size(%rip), %rax
	cmpq	$0, zz_free(,%rax,8)
	je	.LBB1_64
# BB#65:
	movslq	zz_size(%rip), %rax
	movq	zz_free(,%rax,8), %rax
	movq	%rax, zz_hold(%rip)
	movq	(%rax), %rax
	movslq	zz_size(%rip), %rcx
	movq	%rax, zz_free(,%rcx,8)
	jmp	.LBB1_66
.LBB1_64:
	movl	zz_size(%rip), %edi
	movq	no_fpos(%rip), %rsi
	callq	GetMemory
	movq	%rax, zz_hold(%rip)
.LBB1_66:
	movq	zz_hold(%rip), %rax
	movb	$10, 32(%rax)
	movq	zz_hold(%rip), %rax
	movq	%rax, 24(%rax)
	movq	zz_hold(%rip), %rcx
	movq	%rax, 16(%rcx)
	movq	zz_hold(%rip), %rcx
	movq	%rax, 8(%rcx)
	movq	zz_hold(%rip), %rcx
	movq	%rax, (%rcx)
	movq	%rax, -72(%rbp)
	movq	-120(%rbp), %rcx
	movq	%rcx, 80(%rax)
	movzbl	zz_lengths(%rip), %eax
	movl	%eax, zz_size(%rip)
	movb	$1, %al
	testb	%al, %al
	jne	.LBB1_68
# BB#67:
	movq	no_fpos(%rip), %r8
	movl	$1, %edi
	movl	$1, %esi
	movl	$.L.str.14, %edx
	movl	$1, %ecx
	xorl	%eax, %eax
	callq	Error
	jmp	.LBB1_71
.LBB1_68:
	movslq	zz_size(%rip), %rax
	cmpq	$0, zz_free(,%rax,8)
	je	.LBB1_69
# BB#70:
	movslq	zz_size(%rip), %rax
	movq	zz_free(,%rax,8), %rax
	movq	%rax, zz_hold(%rip)
	movq	(%rax), %rax
	movslq	zz_size(%rip), %rcx
	movq	%rax, zz_free(,%rcx,8)
	jmp	.LBB1_71
.LBB1_69:
	movl	zz_size(%rip), %edi
	movq	no_fpos(%rip), %rsi
	callq	GetMemory
	movq	%rax, zz_hold(%rip)
.LBB1_71:
	movq	zz_hold(%rip), %rax
	movb	$0, 32(%rax)
	movq	zz_hold(%rip), %rax
	movq	%rax, 24(%rax)
	movq	zz_hold(%rip), %rcx
	movq	%rax, 16(%rcx)
	movq	zz_hold(%rip), %rcx
	movq	%rax, 8(%rcx)
	movq	zz_hold(%rip), %rcx
	movq	%rax, (%rcx)
	movq	%rax, xx_link(%rip)
	movq	%rax, zz_res(%rip)
	movq	current_moment(%rip), %rax
	movq	%rax, zz_hold(%rip)
	testq	%rax, %rax
	je	.LBB1_74
# BB#72:
	cmpq	$0, zz_res(%rip)
	je	.LBB1_74
# BB#73:
	movq	zz_hold(%rip), %rax
	movq	(%rax), %rax
	movq	%rax, zz_tmp(%rip)
	movq	zz_res(%rip), %rax
	movq	(%rax), %rax
	movq	zz_hold(%rip), %rcx
	movq	%rax, (%rcx)
	movq	zz_hold(%rip), %rax
	movq	zz_res(%rip), %rcx
	movq	(%rcx), %rcx
	movq	%rax, 8(%rcx)
	movq	zz_tmp(%rip), %rax
	movq	zz_res(%rip), %rcx
	movq	%rax, (%rcx)
	movq	zz_res(%rip), %rax
	movq	zz_tmp(%rip), %rcx
	movq	%rax, 8(%rcx)
.LBB1_74:
	movq	xx_link(%rip), %rax
	movq	%rax, zz_res(%rip)
	movq	-72(%rbp), %rax
	movq	%rax, zz_hold(%rip)
	testq	%rax, %rax
	je	.LBB1_77
# BB#75:
	cmpq	$0, zz_res(%rip)
	je	.LBB1_77
# BB#76:
	movq	zz_hold(%rip), %rax
	movq	16(%rax), %rax
	movq	%rax, zz_tmp(%rip)
	movq	zz_res(%rip), %rax
	movq	16(%rax), %rax
	movq	zz_hold(%rip), %rcx
	movq	%rax, 16(%rcx)
	movq	zz_hold(%rip), %rax
	movq	zz_res(%rip), %rcx
	movq	16(%rcx), %rcx
	movq	%rax, 24(%rcx)
	movq	zz_tmp(%rip), %rax
	movq	zz_res(%rip), %rcx
	movq	%rax, 16(%rcx)
	movq	zz_res(%rip), %rax
	movq	zz_tmp(%rip), %rcx
	movq	%rax, 24(%rcx)
.LBB1_77:
	movq	no_fpos(%rip), %rdx
	leaq	-64(%rbp), %rsi
	movl	$11, %edi
	callq	MakeWord
	movq	%rax, -80(%rbp)
	movzbl	zz_lengths(%rip), %eax
	movl	%eax, zz_size(%rip)
	movb	$1, %al
	testb	%al, %al
	jne	.LBB1_79
# BB#78:
	movq	no_fpos(%rip), %r8
	movl	$1, %edi
	movl	$1, %esi
	movl	$.L.str.14, %edx
	movl	$1, %ecx
	xorl	%eax, %eax
	callq	Error
	jmp	.LBB1_82
.LBB1_79:
	movslq	zz_size(%rip), %rax
	cmpq	$0, zz_free(,%rax,8)
	je	.LBB1_80
# BB#81:
	movslq	zz_size(%rip), %rax
	movq	zz_free(,%rax,8), %rax
	movq	%rax, zz_hold(%rip)
	movq	(%rax), %rax
	movslq	zz_size(%rip), %rcx
	movq	%rax, zz_free(,%rcx,8)
	jmp	.LBB1_82
.LBB1_80:
	movl	zz_size(%rip), %edi
	movq	no_fpos(%rip), %rsi
	callq	GetMemory
	movq	%rax, zz_hold(%rip)
.LBB1_82:
	movq	zz_hold(%rip), %rax
	movb	$0, 32(%rax)
	movq	zz_hold(%rip), %rax
	movq	%rax, 24(%rax)
	movq	zz_hold(%rip), %rcx
	movq	%rax, 16(%rcx)
	movq	zz_hold(%rip), %rcx
	movq	%rax, 8(%rcx)
	movq	zz_hold(%rip), %rcx
	movq	%rax, (%rcx)
	movq	%rax, xx_link(%rip)
	movq	%rax, zz_res(%rip)
	movq	-72(%rbp), %rax
	movq	%rax, zz_hold(%rip)
	testq	%rax, %rax
	je	.LBB1_85
# BB#83:
	cmpq	$0, zz_res(%rip)
	je	.LBB1_85
# BB#84:
	movq	zz_hold(%rip), %rax
	movq	(%rax), %rax
	movq	%rax, zz_tmp(%rip)
	movq	zz_res(%rip), %rax
	movq	(%rax), %rax
	movq	zz_hold(%rip), %rcx
	movq	%rax, (%rcx)
	movq	zz_hold(%rip), %rax
	movq	zz_res(%rip), %rcx
	movq	(%rcx), %rcx
	movq	%rax, 8(%rcx)
	movq	zz_tmp(%rip), %rax
	movq	zz_res(%rip), %rcx
	movq	%rax, (%rcx)
	movq	zz_res(%rip), %rax
	movq	zz_tmp(%rip), %rcx
	movq	%rax, 8(%rcx)
.LBB1_85:
	movq	xx_link(%rip), %rax
	movq	%rax, zz_res(%rip)
	movq	-80(%rbp), %rax
	movq	%rax, zz_hold(%rip)
	testq	%rax, %rax
	je	.LBB1_88
# BB#86:
	cmpq	$0, zz_res(%rip)
	je	.LBB1_88
# BB#87:
	movq	zz_hold(%rip), %rax
	movq	16(%rax), %rax
	movq	%rax, zz_tmp(%rip)
	movq	zz_res(%rip), %rax
	movq	16(%rax), %rax
	movq	zz_hold(%rip), %rcx
	movq	%rax, 16(%rcx)
	movq	zz_hold(%rip), %rax
	movq	zz_res(%rip), %rcx
	movq	16(%rcx), %rcx
	movq	%rax, 24(%rcx)
	movq	zz_tmp(%rip), %rax
	movq	zz_res(%rip), %rcx
	movq	%rax, 16(%rcx)
	movq	zz_res(%rip), %rax
	movq	zz_tmp(%rip), %rcx
	movq	%rax, 24(%rcx)
.LBB1_88:
	movq	-32(%rbp), %rax
	movl	8(%rax), %edx
	leaq	-64(%rbp), %rdi
	movl	$.L.str.17, %esi
	xorl	%eax, %eax
	callq	sprintf
	movzbl	zz_lengths+10(%rip), %eax
	movl	%eax, zz_size(%rip)
	movb	$1, %al
	testb	%al, %al
	jne	.LBB1_90
# BB#89:
	movq	no_fpos(%rip), %r8
	movl	$1, %edi
	movl	$1, %esi
	movl	$.L.str.14, %edx
	movl	$1, %ecx
	xorl	%eax, %eax
	callq	Error
	jmp	.LBB1_93
.LBB1_90:
	movslq	zz_size(%rip), %rax
	cmpq	$0, zz_free(,%rax,8)
	je	.LBB1_91
# BB#92:
	movslq	zz_size(%rip), %rax
	movq	zz_free(,%rax,8), %rax
	movq	%rax, zz_hold(%rip)
	movq	(%rax), %rax
	movslq	zz_size(%rip), %rcx
	movq	%rax, zz_free(,%rcx,8)
	jmp	.LBB1_93
.LBB1_91:
	movl	zz_size(%rip), %edi
	movq	no_fpos(%rip), %rsi
	callq	GetMemory
	movq	%rax, zz_hold(%rip)
.LBB1_93:
	movq	zz_hold(%rip), %rax
	movb	$10, 32(%rax)
	movq	zz_hold(%rip), %rax
	movq	%rax, 24(%rax)
	movq	zz_hold(%rip), %rcx
	movq	%rax, 16(%rcx)
	movq	zz_hold(%rip), %rcx
	movq	%rax, 8(%rcx)
	movq	zz_hold(%rip), %rcx
	movq	%rax, (%rcx)
	movq	%rax, -72(%rbp)
	movq	-128(%rbp), %rcx
	movq	%rcx, 80(%rax)
	movzbl	zz_lengths(%rip), %eax
	movl	%eax, zz_size(%rip)
	movb	$1, %al
	testb	%al, %al
	jne	.LBB1_95
# BB#94:
	movq	no_fpos(%rip), %r8
	movl	$1, %edi
	movl	$1, %esi
	movl	$.L.str.14, %edx
	movl	$1, %ecx
	xorl	%eax, %eax
	callq	Error
	jmp	.LBB1_98
.LBB1_95:
	movslq	zz_size(%rip), %rax
	cmpq	$0, zz_free(,%rax,8)
	je	.LBB1_96
# BB#97:
	movslq	zz_size(%rip), %rax
	movq	zz_free(,%rax,8), %rax
	movq	%rax, zz_hold(%rip)
	movq	(%rax), %rax
	movslq	zz_size(%rip), %rcx
	movq	%rax, zz_free(,%rcx,8)
	jmp	.LBB1_98
.LBB1_96:
	movl	zz_size(%rip), %edi
	movq	no_fpos(%rip), %rsi
	callq	GetMemory
	movq	%rax, zz_hold(%rip)
.LBB1_98:
	movq	zz_hold(%rip), %rax
	movb	$0, 32(%rax)
	movq	zz_hold(%rip), %rax
	movq	%rax, 24(%rax)
	movq	zz_hold(%rip), %rcx
	movq	%rax, 16(%rcx)
	movq	zz_hold(%rip), %rcx
	movq	%rax, 8(%rcx)
	movq	zz_hold(%rip), %rcx
	movq	%rax, (%rcx)
	movq	%rax, xx_link(%rip)
	movq	%rax, zz_res(%rip)
	movq	current_moment(%rip), %rax
	movq	%rax, zz_hold(%rip)
	testq	%rax, %rax
	je	.LBB1_101
# BB#99:
	cmpq	$0, zz_res(%rip)
	je	.LBB1_101
# BB#100:
	movq	zz_hold(%rip), %rax
	movq	(%rax), %rax
	movq	%rax, zz_tmp(%rip)
	movq	zz_res(%rip), %rax
	movq	(%rax), %rax
	movq	zz_hold(%rip), %rcx
	movq	%rax, (%rcx)
	movq	zz_hold(%rip), %rax
	movq	zz_res(%rip), %rcx
	movq	(%rcx), %rcx
	movq	%rax, 8(%rcx)
	movq	zz_tmp(%rip), %rax
	movq	zz_res(%rip), %rcx
	movq	%rax, (%rcx)
	movq	zz_res(%rip), %rax
	movq	zz_tmp(%rip), %rcx
	movq	%rax, 8(%rcx)
.LBB1_101:
	movq	xx_link(%rip), %rax
	movq	%rax, zz_res(%rip)
	movq	-72(%rbp), %rax
	movq	%rax, zz_hold(%rip)
	testq	%rax, %rax
	je	.LBB1_104
# BB#102:
	cmpq	$0, zz_res(%rip)
	je	.LBB1_104
# BB#103:
	movq	zz_hold(%rip), %rax
	movq	16(%rax), %rax
	movq	%rax, zz_tmp(%rip)
	movq	zz_res(%rip), %rax
	movq	16(%rax), %rax
	movq	zz_hold(%rip), %rcx
	movq	%rax, 16(%rcx)
	movq	zz_hold(%rip), %rax
	movq	zz_res(%rip), %rcx
	movq	16(%rcx), %rcx
	movq	%rax, 24(%rcx)
	movq	zz_tmp(%rip), %rax
	movq	zz_res(%rip), %rcx
	movq	%rax, 16(%rcx)
	movq	zz_res(%rip), %rax
	movq	zz_tmp(%rip), %rcx
	movq	%rax, 24(%rcx)
.LBB1_104:
	movq	no_fpos(%rip), %rdx
	leaq	-64(%rbp), %rsi
	movl	$11, %edi
	callq	MakeWord
	movq	%rax, -80(%rbp)
	movzbl	zz_lengths(%rip), %eax
	movl	%eax, zz_size(%rip)
	movb	$1, %al
	testb	%al, %al
	jne	.LBB1_106
# BB#105:
	movq	no_fpos(%rip), %r8
	movl	$1, %edi
	movl	$1, %esi
	movl	$.L.str.14, %edx
	movl	$1, %ecx
	xorl	%eax, %eax
	callq	Error
	jmp	.LBB1_109
.LBB1_106:
	movslq	zz_size(%rip), %rax
	cmpq	$0, zz_free(,%rax,8)
	je	.LBB1_107
# BB#108:
	movslq	zz_size(%rip), %rax
	movq	zz_free(,%rax,8), %rax
	movq	%rax, zz_hold(%rip)
	movq	(%rax), %rax
	movslq	zz_size(%rip), %rcx
	movq	%rax, zz_free(,%rcx,8)
	jmp	.LBB1_109
.LBB1_107:
	movl	zz_size(%rip), %edi
	movq	no_fpos(%rip), %rsi
	callq	GetMemory
	movq	%rax, zz_hold(%rip)
.LBB1_109:
	movq	zz_hold(%rip), %rax
	movb	$0, 32(%rax)
	movq	zz_hold(%rip), %rax
	movq	%rax, 24(%rax)
	movq	zz_hold(%rip), %rcx
	movq	%rax, 16(%rcx)
	movq	zz_hold(%rip), %rcx
	movq	%rax, 8(%rcx)
	movq	zz_hold(%rip), %rcx
	movq	%rax, (%rcx)
	movq	%rax, xx_link(%rip)
	movq	%rax, zz_res(%rip)
	movq	-72(%rbp), %rax
	movq	%rax, zz_hold(%rip)
	testq	%rax, %rax
	je	.LBB1_112
# BB#110:
	cmpq	$0, zz_res(%rip)
	je	.LBB1_112
# BB#111:
	movq	zz_hold(%rip), %rax
	movq	(%rax), %rax
	movq	%rax, zz_tmp(%rip)
	movq	zz_res(%rip), %rax
	movq	(%rax), %rax
	movq	zz_hold(%rip), %rcx
	movq	%rax, (%rcx)
	movq	zz_hold(%rip), %rax
	movq	zz_res(%rip), %rcx
	movq	(%rcx), %rcx
	movq	%rax, 8(%rcx)
	movq	zz_tmp(%rip), %rax
	movq	zz_res(%rip), %rcx
	movq	%rax, (%rcx)
	movq	zz_res(%rip), %rax
	movq	zz_tmp(%rip), %rcx
	movq	%rax, 8(%rcx)
.LBB1_112:
	movq	xx_link(%rip), %rax
	movq	%rax, zz_res(%rip)
	movq	-80(%rbp), %rax
	movq	%rax, zz_hold(%rip)
	testq	%rax, %rax
	je	.LBB1_115
# BB#113:
	cmpq	$0, zz_res(%rip)
	je	.LBB1_115
# BB#114:
	movq	zz_hold(%rip), %rax
	movq	16(%rax), %rax
	movq	%rax, zz_tmp(%rip)
	movq	zz_res(%rip), %rax
	movq	16(%rax), %rax
	movq	zz_hold(%rip), %rcx
	movq	%rax, 16(%rcx)
	movq	zz_hold(%rip), %rax
	movq	zz_res(%rip), %rcx
	movq	16(%rcx), %rcx
	movq	%rax, 24(%rcx)
	movq	zz_tmp(%rip), %rax
	movq	zz_res(%rip), %rcx
	movq	%rax, 16(%rcx)
	movq	zz_res(%rip), %rax
	movq	zz_tmp(%rip), %rcx
	movq	%rax, 24(%rcx)
.LBB1_115:
	movq	-32(%rbp), %rax
	movl	12(%rax), %edx
	leaq	-64(%rbp), %rdi
	movl	$.L.str.18, %esi
	xorl	%eax, %eax
	callq	sprintf
	movzbl	zz_lengths+10(%rip), %eax
	movl	%eax, zz_size(%rip)
	movb	$1, %al
	testb	%al, %al
	jne	.LBB1_117
# BB#116:
	movq	no_fpos(%rip), %r8
	movl	$1, %edi
	movl	$1, %esi
	movl	$.L.str.14, %edx
	movl	$1, %ecx
	xorl	%eax, %eax
	callq	Error
	jmp	.LBB1_120
.LBB1_117:
	movslq	zz_size(%rip), %rax
	cmpq	$0, zz_free(,%rax,8)
	je	.LBB1_118
# BB#119:
	movslq	zz_size(%rip), %rax
	movq	zz_free(,%rax,8), %rax
	movq	%rax, zz_hold(%rip)
	movq	(%rax), %rax
	movslq	zz_size(%rip), %rcx
	movq	%rax, zz_free(,%rcx,8)
	jmp	.LBB1_120
.LBB1_118:
	movl	zz_size(%rip), %edi
	movq	no_fpos(%rip), %rsi
	callq	GetMemory
	movq	%rax, zz_hold(%rip)
.LBB1_120:
	movq	zz_hold(%rip), %rax
	movb	$10, 32(%rax)
	movq	zz_hold(%rip), %rax
	movq	%rax, 24(%rax)
	movq	zz_hold(%rip), %rcx
	movq	%rax, 16(%rcx)
	movq	zz_hold(%rip), %rcx
	movq	%rax, 8(%rcx)
	movq	zz_hold(%rip), %rcx
	movq	%rax, (%rcx)
	movq	%rax, -72(%rbp)
	movq	-144(%rbp), %rcx
	movq	%rcx, 80(%rax)
	movzbl	zz_lengths(%rip), %eax
	movl	%eax, zz_size(%rip)
	movb	$1, %al
	testb	%al, %al
	jne	.LBB1_122
# BB#121:
	movq	no_fpos(%rip), %r8
	movl	$1, %edi
	movl	$1, %esi
	movl	$.L.str.14, %edx
	movl	$1, %ecx
	xorl	%eax, %eax
	callq	Error
	jmp	.LBB1_125
.LBB1_122:
	movslq	zz_size(%rip), %rax
	cmpq	$0, zz_free(,%rax,8)
	je	.LBB1_123
# BB#124:
	movslq	zz_size(%rip), %rax
	movq	zz_free(,%rax,8), %rax
	movq	%rax, zz_hold(%rip)
	movq	(%rax), %rax
	movslq	zz_size(%rip), %rcx
	movq	%rax, zz_free(,%rcx,8)
	jmp	.LBB1_125
.LBB1_123:
	movl	zz_size(%rip), %edi
	movq	no_fpos(%rip), %rsi
	callq	GetMemory
	movq	%rax, zz_hold(%rip)
.LBB1_125:
	movq	zz_hold(%rip), %rax
	movb	$0, 32(%rax)
	movq	zz_hold(%rip), %rax
	movq	%rax, 24(%rax)
	movq	zz_hold(%rip), %rcx
	movq	%rax, 16(%rcx)
	movq	zz_hold(%rip), %rcx
	movq	%rax, 8(%rcx)
	movq	zz_hold(%rip), %rcx
	movq	%rax, (%rcx)
	movq	%rax, xx_link(%rip)
	movq	%rax, zz_res(%rip)
	movq	current_moment(%rip), %rax
	movq	%rax, zz_hold(%rip)
	testq	%rax, %rax
	je	.LBB1_128
# BB#126:
	cmpq	$0, zz_res(%rip)
	je	.LBB1_128
# BB#127:
	movq	zz_hold(%rip), %rax
	movq	(%rax), %rax
	movq	%rax, zz_tmp(%rip)
	movq	zz_res(%rip), %rax
	movq	(%rax), %rax
	movq	zz_hold(%rip), %rcx
	movq	%rax, (%rcx)
	movq	zz_hold(%rip), %rax
	movq	zz_res(%rip), %rcx
	movq	(%rcx), %rcx
	movq	%rax, 8(%rcx)
	movq	zz_tmp(%rip), %rax
	movq	zz_res(%rip), %rcx
	movq	%rax, (%rcx)
	movq	zz_res(%rip), %rax
	movq	zz_tmp(%rip), %rcx
	movq	%rax, 8(%rcx)
.LBB1_128:
	movq	xx_link(%rip), %rax
	movq	%rax, zz_res(%rip)
	movq	-72(%rbp), %rax
	movq	%rax, zz_hold(%rip)
	testq	%rax, %rax
	je	.LBB1_131
# BB#129:
	cmpq	$0, zz_res(%rip)
	je	.LBB1_131
# BB#130:
	movq	zz_hold(%rip), %rax
	movq	16(%rax), %rax
	movq	%rax, zz_tmp(%rip)
	movq	zz_res(%rip), %rax
	movq	16(%rax), %rax
	movq	zz_hold(%rip), %rcx
	movq	%rax, 16(%rcx)
	movq	zz_hold(%rip), %rax
	movq	zz_res(%rip), %rcx
	movq	16(%rcx), %rcx
	movq	%rax, 24(%rcx)
	movq	zz_tmp(%rip), %rax
	movq	zz_res(%rip), %rcx
	movq	%rax, 16(%rcx)
	movq	zz_res(%rip), %rax
	movq	zz_tmp(%rip), %rcx
	movq	%rax, 24(%rcx)
.LBB1_131:
	movq	no_fpos(%rip), %rdx
	leaq	-64(%rbp), %rsi
	movl	$11, %edi
	callq	MakeWord
	movq	%rax, -80(%rbp)
	movzbl	zz_lengths(%rip), %eax
	movl	%eax, zz_size(%rip)
	movb	$1, %al
	testb	%al, %al
	jne	.LBB1_133
# BB#132:
	movq	no_fpos(%rip), %r8
	movl	$1, %edi
	movl	$1, %esi
	movl	$.L.str.14, %edx
	movl	$1, %ecx
	xorl	%eax, %eax
	callq	Error
	jmp	.LBB1_136
.LBB1_133:
	movslq	zz_size(%rip), %rax
	cmpq	$0, zz_free(,%rax,8)
	je	.LBB1_134
# BB#135:
	movslq	zz_size(%rip), %rax
	movq	zz_free(,%rax,8), %rax
	movq	%rax, zz_hold(%rip)
	movq	(%rax), %rax
	movslq	zz_size(%rip), %rcx
	movq	%rax, zz_free(,%rcx,8)
	jmp	.LBB1_136
.LBB1_134:
	movl	zz_size(%rip), %edi
	movq	no_fpos(%rip), %rsi
	callq	GetMemory
	movq	%rax, zz_hold(%rip)
.LBB1_136:
	movq	zz_hold(%rip), %rax
	movb	$0, 32(%rax)
	movq	zz_hold(%rip), %rax
	movq	%rax, 24(%rax)
	movq	zz_hold(%rip), %rcx
	movq	%rax, 16(%rcx)
	movq	zz_hold(%rip), %rcx
	movq	%rax, 8(%rcx)
	movq	zz_hold(%rip), %rcx
	movq	%rax, (%rcx)
	movq	%rax, xx_link(%rip)
	movq	%rax, zz_res(%rip)
	movq	-72(%rbp), %rax
	movq	%rax, zz_hold(%rip)
	testq	%rax, %rax
	je	.LBB1_139
# BB#137:
	cmpq	$0, zz_res(%rip)
	je	.LBB1_139
# BB#138:
	movq	zz_hold(%rip), %rax
	movq	(%rax), %rax
	movq	%rax, zz_tmp(%rip)
	movq	zz_res(%rip), %rax
	movq	(%rax), %rax
	movq	zz_hold(%rip), %rcx
	movq	%rax, (%rcx)
	movq	zz_hold(%rip), %rax
	movq	zz_res(%rip), %rcx
	movq	(%rcx), %rcx
	movq	%rax, 8(%rcx)
	movq	zz_tmp(%rip), %rax
	movq	zz_res(%rip), %rcx
	movq	%rax, (%rcx)
	movq	zz_res(%rip), %rax
	movq	zz_tmp(%rip), %rcx
	movq	%rax, 8(%rcx)
.LBB1_139:
	movq	xx_link(%rip), %rax
	movq	%rax, zz_res(%rip)
	movq	-80(%rbp), %rax
	movq	%rax, zz_hold(%rip)
	testq	%rax, %rax
	je	.LBB1_142
# BB#140:
	cmpq	$0, zz_res(%rip)
	je	.LBB1_142
# BB#141:
	movq	zz_hold(%rip), %rax
	movq	16(%rax), %rax
	movq	%rax, zz_tmp(%rip)
	movq	zz_res(%rip), %rax
	movq	16(%rax), %rax
	movq	zz_hold(%rip), %rcx
	movq	%rax, 16(%rcx)
	movq	zz_hold(%rip), %rax
	movq	zz_res(%rip), %rcx
	movq	16(%rcx), %rcx
	movq	%rax, 24(%rcx)
	movq	zz_tmp(%rip), %rax
	movq	zz_res(%rip), %rcx
	movq	%rax, 16(%rcx)
	movq	zz_res(%rip), %rax
	movq	zz_tmp(%rip), %rcx
	movq	%rax, 24(%rcx)
.LBB1_142:
	movq	-32(%rbp), %rax
	movl	16(%rax), %edx
	incl	%edx
	leaq	-64(%rbp), %rdi
	movl	$.L.str.18, %esi
	xorl	%eax, %eax
	callq	sprintf
	movzbl	zz_lengths+10(%rip), %eax
	movl	%eax, zz_size(%rip)
	movb	$1, %al
	testb	%al, %al
	jne	.LBB1_144
# BB#143:
	movq	no_fpos(%rip), %r8
	movl	$1, %edi
	movl	$1, %esi
	movl	$.L.str.14, %edx
	movl	$1, %ecx
	xorl	%eax, %eax
	callq	Error
	jmp	.LBB1_147
.LBB1_144:
	movslq	zz_size(%rip), %rax
	cmpq	$0, zz_free(,%rax,8)
	je	.LBB1_145
# BB#146:
	movslq	zz_size(%rip), %rax
	movq	zz_free(,%rax,8), %rax
	movq	%rax, zz_hold(%rip)
	movq	(%rax), %rax
	movslq	zz_size(%rip), %rcx
	movq	%rax, zz_free(,%rcx,8)
	jmp	.LBB1_147
.LBB1_145:
	movl	zz_size(%rip), %edi
	movq	no_fpos(%rip), %rsi
	callq	GetMemory
	movq	%rax, zz_hold(%rip)
.LBB1_147:
	movq	zz_hold(%rip), %rax
	movb	$10, 32(%rax)
	movq	zz_hold(%rip), %rax
	movq	%rax, 24(%rax)
	movq	zz_hold(%rip), %rcx
	movq	%rax, 16(%rcx)
	movq	zz_hold(%rip), %rcx
	movq	%rax, 8(%rcx)
	movq	zz_hold(%rip), %rcx
	movq	%rax, (%rcx)
	movq	%rax, -72(%rbp)
	movq	-160(%rbp), %rcx
	movq	%rcx, 80(%rax)
	movzbl	zz_lengths(%rip), %eax
	movl	%eax, zz_size(%rip)
	movb	$1, %al
	testb	%al, %al
	jne	.LBB1_149
# BB#148:
	movq	no_fpos(%rip), %r8
	movl	$1, %edi
	movl	$1, %esi
	movl	$.L.str.14, %edx
	movl	$1, %ecx
	xorl	%eax, %eax
	callq	Error
	jmp	.LBB1_152
.LBB1_149:
	movslq	zz_size(%rip), %rax
	cmpq	$0, zz_free(,%rax,8)
	je	.LBB1_150
# BB#151:
	movslq	zz_size(%rip), %rax
	movq	zz_free(,%rax,8), %rax
	movq	%rax, zz_hold(%rip)
	movq	(%rax), %rax
	movslq	zz_size(%rip), %rcx
	movq	%rax, zz_free(,%rcx,8)
	jmp	.LBB1_152
.LBB1_150:
	movl	zz_size(%rip), %edi
	movq	no_fpos(%rip), %rsi
	callq	GetMemory
	movq	%rax, zz_hold(%rip)
.LBB1_152:
	movq	zz_hold(%rip), %rax
	movb	$0, 32(%rax)
	movq	zz_hold(%rip), %rax
	movq	%rax, 24(%rax)
	movq	zz_hold(%rip), %rcx
	movq	%rax, 16(%rcx)
	movq	zz_hold(%rip), %rcx
	movq	%rax, 8(%rcx)
	movq	zz_hold(%rip), %rcx
	movq	%rax, (%rcx)
	movq	%rax, xx_link(%rip)
	movq	%rax, zz_res(%rip)
	movq	current_moment(%rip), %rax
	movq	%rax, zz_hold(%rip)
	testq	%rax, %rax
	je	.LBB1_155
# BB#153:
	cmpq	$0, zz_res(%rip)
	je	.LBB1_155
# BB#154:
	movq	zz_hold(%rip), %rax
	movq	(%rax), %rax
	movq	%rax, zz_tmp(%rip)
	movq	zz_res(%rip), %rax
	movq	(%rax), %rax
	movq	zz_hold(%rip), %rcx
	movq	%rax, (%rcx)
	movq	zz_hold(%rip), %rax
	movq	zz_res(%rip), %rcx
	movq	(%rcx), %rcx
	movq	%rax, 8(%rcx)
	movq	zz_tmp(%rip), %rax
	movq	zz_res(%rip), %rcx
	movq	%rax, (%rcx)
	movq	zz_res(%rip), %rax
	movq	zz_tmp(%rip), %rcx
	movq	%rax, 8(%rcx)
.LBB1_155:
	movq	xx_link(%rip), %rax
	movq	%rax, zz_res(%rip)
	movq	-72(%rbp), %rax
	movq	%rax, zz_hold(%rip)
	testq	%rax, %rax
	je	.LBB1_158
# BB#156:
	cmpq	$0, zz_res(%rip)
	je	.LBB1_158
# BB#157:
	movq	zz_hold(%rip), %rax
	movq	16(%rax), %rax
	movq	%rax, zz_tmp(%rip)
	movq	zz_res(%rip), %rax
	movq	16(%rax), %rax
	movq	zz_hold(%rip), %rcx
	movq	%rax, 16(%rcx)
	movq	zz_hold(%rip), %rax
	movq	zz_res(%rip), %rcx
	movq	16(%rcx), %rcx
	movq	%rax, 24(%rcx)
	movq	zz_tmp(%rip), %rax
	movq	zz_res(%rip), %rcx
	movq	%rax, 16(%rcx)
	movq	zz_res(%rip), %rax
	movq	zz_tmp(%rip), %rcx
	movq	%rax, 24(%rcx)
.LBB1_158:
	movq	no_fpos(%rip), %rdx
	leaq	-64(%rbp), %rsi
	movl	$11, %edi
	callq	MakeWord
	movq	%rax, -80(%rbp)
	movzbl	zz_lengths(%rip), %eax
	movl	%eax, zz_size(%rip)
	movb	$1, %al
	testb	%al, %al
	jne	.LBB1_160
# BB#159:
	movq	no_fpos(%rip), %r8
	movl	$1, %edi
	movl	$1, %esi
	movl	$.L.str.14, %edx
	movl	$1, %ecx
	xorl	%eax, %eax
	callq	Error
	jmp	.LBB1_163
.LBB1_160:
	movslq	zz_size(%rip), %rax
	cmpq	$0, zz_free(,%rax,8)
	je	.LBB1_161
# BB#162:
	movslq	zz_size(%rip), %rax
	movq	zz_free(,%rax,8), %rax
	movq	%rax, zz_hold(%rip)
	movq	(%rax), %rax
	movslq	zz_size(%rip), %rcx
	movq	%rax, zz_free(,%rcx,8)
	jmp	.LBB1_163
.LBB1_161:
	movl	zz_size(%rip), %edi
	movq	no_fpos(%rip), %rsi
	callq	GetMemory
	movq	%rax, zz_hold(%rip)
.LBB1_163:
	movq	zz_hold(%rip), %rax
	movb	$0, 32(%rax)
	movq	zz_hold(%rip), %rax
	movq	%rax, 24(%rax)
	movq	zz_hold(%rip), %rcx
	movq	%rax, 16(%rcx)
	movq	zz_hold(%rip), %rcx
	movq	%rax, 8(%rcx)
	movq	zz_hold(%rip), %rcx
	movq	%rax, (%rcx)
	movq	%rax, xx_link(%rip)
	movq	%rax, zz_res(%rip)
	movq	-72(%rbp), %rax
	movq	%rax, zz_hold(%rip)
	testq	%rax, %rax
	je	.LBB1_166
# BB#164:
	cmpq	$0, zz_res(%rip)
	je	.LBB1_166
# BB#165:
	movq	zz_hold(%rip), %rax
	movq	(%rax), %rax
	movq	%rax, zz_tmp(%rip)
	movq	zz_res(%rip), %rax
	movq	(%rax), %rax
	movq	zz_hold(%rip), %rcx
	movq	%rax, (%rcx)
	movq	zz_hold(%rip), %rax
	movq	zz_res(%rip), %rcx
	movq	(%rcx), %rcx
	movq	%rax, 8(%rcx)
	movq	zz_tmp(%rip), %rax
	movq	zz_res(%rip), %rcx
	movq	%rax, (%rcx)
	movq	zz_res(%rip), %rax
	movq	zz_tmp(%rip), %rcx
	movq	%rax, 8(%rcx)
.LBB1_166:
	movq	xx_link(%rip), %rax
	movq	%rax, zz_res(%rip)
	movq	-80(%rbp), %rax
	movq	%rax, zz_hold(%rip)
	testq	%rax, %rax
	je	.LBB1_169
# BB#167:
	cmpq	$0, zz_res(%rip)
	je	.LBB1_169
# BB#168:
	movq	zz_hold(%rip), %rax
	movq	16(%rax), %rax
	movq	%rax, zz_tmp(%rip)
	movq	zz_res(%rip), %rax
	movq	16(%rax), %rax
	movq	zz_hold(%rip), %rcx
	movq	%rax, 16(%rcx)
	movq	zz_hold(%rip), %rax
	movq	zz_res(%rip), %rcx
	movq	16(%rcx), %rcx
	movq	%rax, 24(%rcx)
	movq	zz_tmp(%rip), %rax
	movq	zz_res(%rip), %rcx
	movq	%rax, 16(%rcx)
	movq	zz_res(%rip), %rax
	movq	zz_tmp(%rip), %rcx
	movq	%rax, 24(%rcx)
.LBB1_169:
	movq	-32(%rbp), %rax
	movslq	20(%rax), %rdx
	imulq	$1374389535, %rdx, %rax # imm = 0x51EB851F
	movq	%rax, %rcx
	shrq	$63, %rcx
	sarq	$37, %rax
	addl	%ecx, %eax
	imull	$100, %eax, %eax
	subl	%eax, %edx
	leaq	-64(%rbp), %rdi
	movl	$.L.str.17, %esi
	xorl	%eax, %eax
	callq	sprintf
	movzbl	zz_lengths+10(%rip), %eax
	movl	%eax, zz_size(%rip)
	movb	$1, %al
	testb	%al, %al
	jne	.LBB1_171
# BB#170:
	movq	no_fpos(%rip), %r8
	movl	$1, %edi
	movl	$1, %esi
	movl	$.L.str.14, %edx
	movl	$1, %ecx
	xorl	%eax, %eax
	callq	Error
	jmp	.LBB1_174
.LBB1_171:
	movslq	zz_size(%rip), %rax
	cmpq	$0, zz_free(,%rax,8)
	je	.LBB1_172
# BB#173:
	movslq	zz_size(%rip), %rax
	movq	zz_free(,%rax,8), %rax
	movq	%rax, zz_hold(%rip)
	movq	(%rax), %rax
	movslq	zz_size(%rip), %rcx
	movq	%rax, zz_free(,%rcx,8)
	jmp	.LBB1_174
.LBB1_172:
	movl	zz_size(%rip), %edi
	movq	no_fpos(%rip), %rsi
	callq	GetMemory
	movq	%rax, zz_hold(%rip)
.LBB1_174:
	movq	zz_hold(%rip), %rax
	movb	$10, 32(%rax)
	movq	zz_hold(%rip), %rax
	movq	%rax, 24(%rax)
	movq	zz_hold(%rip), %rcx
	movq	%rax, 16(%rcx)
	movq	zz_hold(%rip), %rcx
	movq	%rax, 8(%rcx)
	movq	zz_hold(%rip), %rcx
	movq	%rax, (%rcx)
	movq	%rax, -72(%rbp)
	movq	-168(%rbp), %rcx
	movq	%rcx, 80(%rax)
	movzbl	zz_lengths(%rip), %eax
	movl	%eax, zz_size(%rip)
	movb	$1, %al
	testb	%al, %al
	jne	.LBB1_176
# BB#175:
	movq	no_fpos(%rip), %r8
	movl	$1, %edi
	movl	$1, %esi
	movl	$.L.str.14, %edx
	movl	$1, %ecx
	xorl	%eax, %eax
	callq	Error
	jmp	.LBB1_179
.LBB1_176:
	movslq	zz_size(%rip), %rax
	cmpq	$0, zz_free(,%rax,8)
	je	.LBB1_177
# BB#178:
	movslq	zz_size(%rip), %rax
	movq	zz_free(,%rax,8), %rax
	movq	%rax, zz_hold(%rip)
	movq	(%rax), %rax
	movslq	zz_size(%rip), %rcx
	movq	%rax, zz_free(,%rcx,8)
	jmp	.LBB1_179
.LBB1_177:
	movl	zz_size(%rip), %edi
	movq	no_fpos(%rip), %rsi
	callq	GetMemory
	movq	%rax, zz_hold(%rip)
.LBB1_179:
	movq	zz_hold(%rip), %rax
	movb	$0, 32(%rax)
	movq	zz_hold(%rip), %rax
	movq	%rax, 24(%rax)
	movq	zz_hold(%rip), %rcx
	movq	%rax, 16(%rcx)
	movq	zz_hold(%rip), %rcx
	movq	%rax, 8(%rcx)
	movq	zz_hold(%rip), %rcx
	movq	%rax, (%rcx)
	movq	%rax, xx_link(%rip)
	movq	%rax, zz_res(%rip)
	movq	current_moment(%rip), %rax
	movq	%rax, zz_hold(%rip)
	testq	%rax, %rax
	je	.LBB1_182
# BB#180:
	cmpq	$0, zz_res(%rip)
	je	.LBB1_182
# BB#181:
	movq	zz_hold(%rip), %rax
	movq	(%rax), %rax
	movq	%rax, zz_tmp(%rip)
	movq	zz_res(%rip), %rax
	movq	(%rax), %rax
	movq	zz_hold(%rip), %rcx
	movq	%rax, (%rcx)
	movq	zz_hold(%rip), %rax
	movq	zz_res(%rip), %rcx
	movq	(%rcx), %rcx
	movq	%rax, 8(%rcx)
	movq	zz_tmp(%rip), %rax
	movq	zz_res(%rip), %rcx
	movq	%rax, (%rcx)
	movq	zz_res(%rip), %rax
	movq	zz_tmp(%rip), %rcx
	movq	%rax, 8(%rcx)
.LBB1_182:
	movq	xx_link(%rip), %rax
	movq	%rax, zz_res(%rip)
	movq	-72(%rbp), %rax
	movq	%rax, zz_hold(%rip)
	testq	%rax, %rax
	je	.LBB1_185
# BB#183:
	cmpq	$0, zz_res(%rip)
	je	.LBB1_185
# BB#184:
	movq	zz_hold(%rip), %rax
	movq	16(%rax), %rax
	movq	%rax, zz_tmp(%rip)
	movq	zz_res(%rip), %rax
	movq	16(%rax), %rax
	movq	zz_hold(%rip), %rcx
	movq	%rax, 16(%rcx)
	movq	zz_hold(%rip), %rax
	movq	zz_res(%rip), %rcx
	movq	16(%rcx), %rcx
	movq	%rax, 24(%rcx)
	movq	zz_tmp(%rip), %rax
	movq	zz_res(%rip), %rcx
	movq	%rax, 16(%rcx)
	movq	zz_res(%rip), %rax
	movq	zz_tmp(%rip), %rcx
	movq	%rax, 24(%rcx)
.LBB1_185:
	movq	no_fpos(%rip), %rdx
	leaq	-64(%rbp), %rsi
	movl	$11, %edi
	callq	MakeWord
	movq	%rax, -80(%rbp)
	movzbl	zz_lengths(%rip), %eax
	movl	%eax, zz_size(%rip)
	movb	$1, %al
	testb	%al, %al
	jne	.LBB1_187
# BB#186:
	movq	no_fpos(%rip), %r8
	movl	$1, %edi
	movl	$1, %esi
	movl	$.L.str.14, %edx
	movl	$1, %ecx
	xorl	%eax, %eax
	callq	Error
	jmp	.LBB1_190
.LBB1_187:
	movslq	zz_size(%rip), %rax
	cmpq	$0, zz_free(,%rax,8)
	je	.LBB1_188
# BB#189:
	movslq	zz_size(%rip), %rax
	movq	zz_free(,%rax,8), %rax
	movq	%rax, zz_hold(%rip)
	movq	(%rax), %rax
	movslq	zz_size(%rip), %rcx
	movq	%rax, zz_free(,%rcx,8)
	jmp	.LBB1_190
.LBB1_188:
	movl	zz_size(%rip), %edi
	movq	no_fpos(%rip), %rsi
	callq	GetMemory
	movq	%rax, zz_hold(%rip)
.LBB1_190:
	movq	zz_hold(%rip), %rax
	movb	$0, 32(%rax)
	movq	zz_hold(%rip), %rax
	movq	%rax, 24(%rax)
	movq	zz_hold(%rip), %rcx
	movq	%rax, 16(%rcx)
	movq	zz_hold(%rip), %rcx
	movq	%rax, 8(%rcx)
	movq	zz_hold(%rip), %rcx
	movq	%rax, (%rcx)
	movq	%rax, xx_link(%rip)
	movq	%rax, zz_res(%rip)
	movq	-72(%rbp), %rax
	movq	%rax, zz_hold(%rip)
	testq	%rax, %rax
	je	.LBB1_193
# BB#191:
	cmpq	$0, zz_res(%rip)
	je	.LBB1_193
# BB#192:
	movq	zz_hold(%rip), %rax
	movq	(%rax), %rax
	movq	%rax, zz_tmp(%rip)
	movq	zz_res(%rip), %rax
	movq	(%rax), %rax
	movq	zz_hold(%rip), %rcx
	movq	%rax, (%rcx)
	movq	zz_hold(%rip), %rax
	movq	zz_res(%rip), %rcx
	movq	(%rcx), %rcx
	movq	%rax, 8(%rcx)
	movq	zz_tmp(%rip), %rax
	movq	zz_res(%rip), %rcx
	movq	%rax, (%rcx)
	movq	zz_res(%rip), %rax
	movq	zz_tmp(%rip), %rcx
	movq	%rax, 8(%rcx)
.LBB1_193:
	movq	xx_link(%rip), %rax
	movq	%rax, zz_res(%rip)
	movq	-80(%rbp), %rax
	movq	%rax, zz_hold(%rip)
	testq	%rax, %rax
	je	.LBB1_196
# BB#194:
	cmpq	$0, zz_res(%rip)
	je	.LBB1_196
# BB#195:
	movq	zz_hold(%rip), %rax
	movq	16(%rax), %rax
	movq	%rax, zz_tmp(%rip)
	movq	zz_res(%rip), %rax
	movq	16(%rax), %rax
	movq	zz_hold(%rip), %rcx
	movq	%rax, 16(%rcx)
	movq	zz_hold(%rip), %rax
	movq	zz_res(%rip), %rcx
	movq	16(%rcx), %rcx
	movq	%rax, 24(%rcx)
	movq	zz_tmp(%rip), %rax
	movq	zz_res(%rip), %rcx
	movq	%rax, 16(%rcx)
	movq	zz_res(%rip), %rax
	movq	zz_tmp(%rip), %rcx
	movq	%rax, 24(%rcx)
.LBB1_196:
	movq	-32(%rbp), %rax
	movl	$1900, %ecx             # imm = 0x76C
	addl	20(%rax), %ecx
	movslq	%ecx, %rax
	imulq	$1374389535, %rax, %rdx # imm = 0x51EB851F
	movq	%rdx, %rax
	shrq	$63, %rax
	sarq	$37, %rdx
	addl	%eax, %edx
	leaq	-64(%rbp), %rdi
	movl	$.L.str.18, %esi
	xorl	%eax, %eax
	callq	sprintf
	movzbl	zz_lengths+10(%rip), %eax
	movl	%eax, zz_size(%rip)
	movb	$1, %al
	testb	%al, %al
	jne	.LBB1_198
# BB#197:
	movq	no_fpos(%rip), %r8
	movl	$1, %edi
	movl	$1, %esi
	movl	$.L.str.14, %edx
	movl	$1, %ecx
	xorl	%eax, %eax
	callq	Error
	jmp	.LBB1_201
.LBB1_198:
	movslq	zz_size(%rip), %rax
	cmpq	$0, zz_free(,%rax,8)
	je	.LBB1_199
# BB#200:
	movslq	zz_size(%rip), %rax
	movq	zz_free(,%rax,8), %rax
	movq	%rax, zz_hold(%rip)
	movq	(%rax), %rax
	movslq	zz_size(%rip), %rcx
	movq	%rax, zz_free(,%rcx,8)
	jmp	.LBB1_201
.LBB1_199:
	movl	zz_size(%rip), %edi
	movq	no_fpos(%rip), %rsi
	callq	GetMemory
	movq	%rax, zz_hold(%rip)
.LBB1_201:
	movq	zz_hold(%rip), %rax
	movb	$10, 32(%rax)
	movq	zz_hold(%rip), %rax
	movq	%rax, 24(%rax)
	movq	zz_hold(%rip), %rcx
	movq	%rax, 16(%rcx)
	movq	zz_hold(%rip), %rcx
	movq	%rax, 8(%rcx)
	movq	zz_hold(%rip), %rcx
	movq	%rax, (%rcx)
	movq	%rax, -72(%rbp)
	movq	-176(%rbp), %rcx
	movq	%rcx, 80(%rax)
	movzbl	zz_lengths(%rip), %eax
	movl	%eax, zz_size(%rip)
	movb	$1, %al
	testb	%al, %al
	jne	.LBB1_203
# BB#202:
	movq	no_fpos(%rip), %r8
	movl	$1, %edi
	movl	$1, %esi
	movl	$.L.str.14, %edx
	movl	$1, %ecx
	xorl	%eax, %eax
	callq	Error
	jmp	.LBB1_206
.LBB1_203:
	movslq	zz_size(%rip), %rax
	cmpq	$0, zz_free(,%rax,8)
	je	.LBB1_204
# BB#205:
	movslq	zz_size(%rip), %rax
	movq	zz_free(,%rax,8), %rax
	movq	%rax, zz_hold(%rip)
	movq	(%rax), %rax
	movslq	zz_size(%rip), %rcx
	movq	%rax, zz_free(,%rcx,8)
	jmp	.LBB1_206
.LBB1_204:
	movl	zz_size(%rip), %edi
	movq	no_fpos(%rip), %rsi
	callq	GetMemory
	movq	%rax, zz_hold(%rip)
.LBB1_206:
	movq	zz_hold(%rip), %rax
	movb	$0, 32(%rax)
	movq	zz_hold(%rip), %rax
	movq	%rax, 24(%rax)
	movq	zz_hold(%rip), %rcx
	movq	%rax, 16(%rcx)
	movq	zz_hold(%rip), %rcx
	movq	%rax, 8(%rcx)
	movq	zz_hold(%rip), %rcx
	movq	%rax, (%rcx)
	movq	%rax, xx_link(%rip)
	movq	%rax, zz_res(%rip)
	movq	current_moment(%rip), %rax
	movq	%rax, zz_hold(%rip)
	testq	%rax, %rax
	je	.LBB1_209
# BB#207:
	cmpq	$0, zz_res(%rip)
	je	.LBB1_209
# BB#208:
	movq	zz_hold(%rip), %rax
	movq	(%rax), %rax
	movq	%rax, zz_tmp(%rip)
	movq	zz_res(%rip), %rax
	movq	(%rax), %rax
	movq	zz_hold(%rip), %rcx
	movq	%rax, (%rcx)
	movq	zz_hold(%rip), %rax
	movq	zz_res(%rip), %rcx
	movq	(%rcx), %rcx
	movq	%rax, 8(%rcx)
	movq	zz_tmp(%rip), %rax
	movq	zz_res(%rip), %rcx
	movq	%rax, (%rcx)
	movq	zz_res(%rip), %rax
	movq	zz_tmp(%rip), %rcx
	movq	%rax, 8(%rcx)
.LBB1_209:
	movq	xx_link(%rip), %rax
	movq	%rax, zz_res(%rip)
	movq	-72(%rbp), %rax
	movq	%rax, zz_hold(%rip)
	testq	%rax, %rax
	je	.LBB1_212
# BB#210:
	cmpq	$0, zz_res(%rip)
	je	.LBB1_212
# BB#211:
	movq	zz_hold(%rip), %rax
	movq	16(%rax), %rax
	movq	%rax, zz_tmp(%rip)
	movq	zz_res(%rip), %rax
	movq	16(%rax), %rax
	movq	zz_hold(%rip), %rcx
	movq	%rax, 16(%rcx)
	movq	zz_hold(%rip), %rax
	movq	zz_res(%rip), %rcx
	movq	16(%rcx), %rcx
	movq	%rax, 24(%rcx)
	movq	zz_tmp(%rip), %rax
	movq	zz_res(%rip), %rcx
	movq	%rax, 16(%rcx)
	movq	zz_res(%rip), %rax
	movq	zz_tmp(%rip), %rcx
	movq	%rax, 24(%rcx)
.LBB1_212:
	movq	no_fpos(%rip), %rdx
	leaq	-64(%rbp), %rsi
	movl	$11, %edi
	callq	MakeWord
	movq	%rax, -80(%rbp)
	movzbl	zz_lengths(%rip), %eax
	movl	%eax, zz_size(%rip)
	movb	$1, %al
	testb	%al, %al
	jne	.LBB1_214
# BB#213:
	movq	no_fpos(%rip), %r8
	movl	$1, %edi
	movl	$1, %esi
	movl	$.L.str.14, %edx
	movl	$1, %ecx
	xorl	%eax, %eax
	callq	Error
	jmp	.LBB1_217
.LBB1_214:
	movslq	zz_size(%rip), %rax
	cmpq	$0, zz_free(,%rax,8)
	je	.LBB1_215
# BB#216:
	movslq	zz_size(%rip), %rax
	movq	zz_free(,%rax,8), %rax
	movq	%rax, zz_hold(%rip)
	movq	(%rax), %rax
	movslq	zz_size(%rip), %rcx
	movq	%rax, zz_free(,%rcx,8)
	jmp	.LBB1_217
.LBB1_215:
	movl	zz_size(%rip), %edi
	movq	no_fpos(%rip), %rsi
	callq	GetMemory
	movq	%rax, zz_hold(%rip)
.LBB1_217:
	movq	zz_hold(%rip), %rax
	movb	$0, 32(%rax)
	movq	zz_hold(%rip), %rax
	movq	%rax, 24(%rax)
	movq	zz_hold(%rip), %rcx
	movq	%rax, 16(%rcx)
	movq	zz_hold(%rip), %rcx
	movq	%rax, 8(%rcx)
	movq	zz_hold(%rip), %rcx
	movq	%rax, (%rcx)
	movq	%rax, xx_link(%rip)
	movq	%rax, zz_res(%rip)
	movq	-72(%rbp), %rax
	movq	%rax, zz_hold(%rip)
	testq	%rax, %rax
	je	.LBB1_220
# BB#218:
	cmpq	$0, zz_res(%rip)
	je	.LBB1_220
# BB#219:
	movq	zz_hold(%rip), %rax
	movq	(%rax), %rax
	movq	%rax, zz_tmp(%rip)
	movq	zz_res(%rip), %rax
	movq	(%rax), %rax
	movq	zz_hold(%rip), %rcx
	movq	%rax, (%rcx)
	movq	zz_hold(%rip), %rax
	movq	zz_res(%rip), %rcx
	movq	(%rcx), %rcx
	movq	%rax, 8(%rcx)
	movq	zz_tmp(%rip), %rax
	movq	zz_res(%rip), %rcx
	movq	%rax, (%rcx)
	movq	zz_res(%rip), %rax
	movq	zz_tmp(%rip), %rcx
	movq	%rax, 8(%rcx)
.LBB1_220:
	movq	xx_link(%rip), %rax
	movq	%rax, zz_res(%rip)
	movq	-80(%rbp), %rax
	movq	%rax, zz_hold(%rip)
	testq	%rax, %rax
	je	.LBB1_223
# BB#221:
	cmpq	$0, zz_res(%rip)
	je	.LBB1_223
# BB#222:
	movq	zz_hold(%rip), %rax
	movq	16(%rax), %rax
	movq	%rax, zz_tmp(%rip)
	movq	zz_res(%rip), %rax
	movq	16(%rax), %rax
	movq	zz_hold(%rip), %rcx
	movq	%rax, 16(%rcx)
	movq	zz_hold(%rip), %rax
	movq	zz_res(%rip), %rcx
	movq	16(%rcx), %rcx
	movq	%rax, 24(%rcx)
	movq	zz_tmp(%rip), %rax
	movq	zz_res(%rip), %rcx
	movq	%rax, 16(%rcx)
	movq	zz_res(%rip), %rax
	movq	zz_tmp(%rip), %rcx
	movq	%rax, 24(%rcx)
.LBB1_223:
	movq	-32(%rbp), %rax
	movl	24(%rax), %edx
	incl	%edx
	leaq	-64(%rbp), %rdi
	movl	$.L.str.18, %esi
	xorl	%eax, %eax
	callq	sprintf
	movzbl	zz_lengths+10(%rip), %eax
	movl	%eax, zz_size(%rip)
	movb	$1, %al
	testb	%al, %al
	jne	.LBB1_225
# BB#224:
	movq	no_fpos(%rip), %r8
	movl	$1, %edi
	movl	$1, %esi
	movl	$.L.str.14, %edx
	movl	$1, %ecx
	xorl	%eax, %eax
	callq	Error
	jmp	.LBB1_228
.LBB1_225:
	movslq	zz_size(%rip), %rax
	cmpq	$0, zz_free(,%rax,8)
	je	.LBB1_226
# BB#227:
	movslq	zz_size(%rip), %rax
	movq	zz_free(,%rax,8), %rax
	movq	%rax, zz_hold(%rip)
	movq	(%rax), %rax
	movslq	zz_size(%rip), %rcx
	movq	%rax, zz_free(,%rcx,8)
	jmp	.LBB1_228
.LBB1_226:
	movl	zz_size(%rip), %edi
	movq	no_fpos(%rip), %rsi
	callq	GetMemory
	movq	%rax, zz_hold(%rip)
.LBB1_228:
	movq	zz_hold(%rip), %rax
	movb	$10, 32(%rax)
	movq	zz_hold(%rip), %rax
	movq	%rax, 24(%rax)
	movq	zz_hold(%rip), %rcx
	movq	%rax, 16(%rcx)
	movq	zz_hold(%rip), %rcx
	movq	%rax, 8(%rcx)
	movq	zz_hold(%rip), %rcx
	movq	%rax, (%rcx)
	movq	%rax, -72(%rbp)
	movq	-136(%rbp), %rcx
	movq	%rcx, 80(%rax)
	movzbl	zz_lengths(%rip), %eax
	movl	%eax, zz_size(%rip)
	movb	$1, %al
	testb	%al, %al
	jne	.LBB1_230
# BB#229:
	movq	no_fpos(%rip), %r8
	movl	$1, %edi
	movl	$1, %esi
	movl	$.L.str.14, %edx
	movl	$1, %ecx
	xorl	%eax, %eax
	callq	Error
	jmp	.LBB1_233
.LBB1_230:
	movslq	zz_size(%rip), %rax
	cmpq	$0, zz_free(,%rax,8)
	je	.LBB1_231
# BB#232:
	movslq	zz_size(%rip), %rax
	movq	zz_free(,%rax,8), %rax
	movq	%rax, zz_hold(%rip)
	movq	(%rax), %rax
	movslq	zz_size(%rip), %rcx
	movq	%rax, zz_free(,%rcx,8)
	jmp	.LBB1_233
.LBB1_231:
	movl	zz_size(%rip), %edi
	movq	no_fpos(%rip), %rsi
	callq	GetMemory
	movq	%rax, zz_hold(%rip)
.LBB1_233:
	movq	zz_hold(%rip), %rax
	movb	$0, 32(%rax)
	movq	zz_hold(%rip), %rax
	movq	%rax, 24(%rax)
	movq	zz_hold(%rip), %rcx
	movq	%rax, 16(%rcx)
	movq	zz_hold(%rip), %rcx
	movq	%rax, 8(%rcx)
	movq	zz_hold(%rip), %rcx
	movq	%rax, (%rcx)
	movq	%rax, xx_link(%rip)
	movq	%rax, zz_res(%rip)
	movq	current_moment(%rip), %rax
	movq	%rax, zz_hold(%rip)
	testq	%rax, %rax
	je	.LBB1_236
# BB#234:
	cmpq	$0, zz_res(%rip)
	je	.LBB1_236
# BB#235:
	movq	zz_hold(%rip), %rax
	movq	(%rax), %rax
	movq	%rax, zz_tmp(%rip)
	movq	zz_res(%rip), %rax
	movq	(%rax), %rax
	movq	zz_hold(%rip), %rcx
	movq	%rax, (%rcx)
	movq	zz_hold(%rip), %rax
	movq	zz_res(%rip), %rcx
	movq	(%rcx), %rcx
	movq	%rax, 8(%rcx)
	movq	zz_tmp(%rip), %rax
	movq	zz_res(%rip), %rcx
	movq	%rax, (%rcx)
	movq	zz_res(%rip), %rax
	movq	zz_tmp(%rip), %rcx
	movq	%rax, 8(%rcx)
.LBB1_236:
	movq	xx_link(%rip), %rax
	movq	%rax, zz_res(%rip)
	movq	-72(%rbp), %rax
	movq	%rax, zz_hold(%rip)
	testq	%rax, %rax
	je	.LBB1_239
# BB#237:
	cmpq	$0, zz_res(%rip)
	je	.LBB1_239
# BB#238:
	movq	zz_hold(%rip), %rax
	movq	16(%rax), %rax
	movq	%rax, zz_tmp(%rip)
	movq	zz_res(%rip), %rax
	movq	16(%rax), %rax
	movq	zz_hold(%rip), %rcx
	movq	%rax, 16(%rcx)
	movq	zz_hold(%rip), %rax
	movq	zz_res(%rip), %rcx
	movq	16(%rcx), %rcx
	movq	%rax, 24(%rcx)
	movq	zz_tmp(%rip), %rax
	movq	zz_res(%rip), %rcx
	movq	%rax, 16(%rcx)
	movq	zz_res(%rip), %rax
	movq	zz_tmp(%rip), %rcx
	movq	%rax, 24(%rcx)
.LBB1_239:
	movq	no_fpos(%rip), %rdx
	leaq	-64(%rbp), %rsi
	movl	$11, %edi
	callq	MakeWord
	movq	%rax, -80(%rbp)
	movzbl	zz_lengths(%rip), %eax
	movl	%eax, zz_size(%rip)
	movb	$1, %al
	testb	%al, %al
	jne	.LBB1_241
# BB#240:
	movq	no_fpos(%rip), %r8
	movl	$1, %edi
	movl	$1, %esi
	movl	$.L.str.14, %edx
	movl	$1, %ecx
	xorl	%eax, %eax
	callq	Error
	jmp	.LBB1_244
.LBB1_241:
	movslq	zz_size(%rip), %rax
	cmpq	$0, zz_free(,%rax,8)
	je	.LBB1_242
# BB#243:
	movslq	zz_size(%rip), %rax
	movq	zz_free(,%rax,8), %rax
	movq	%rax, zz_hold(%rip)
	movq	(%rax), %rax
	movslq	zz_size(%rip), %rcx
	movq	%rax, zz_free(,%rcx,8)
	jmp	.LBB1_244
.LBB1_242:
	movl	zz_size(%rip), %edi
	movq	no_fpos(%rip), %rsi
	callq	GetMemory
	movq	%rax, zz_hold(%rip)
.LBB1_244:
	movq	zz_hold(%rip), %rax
	movb	$0, 32(%rax)
	movq	zz_hold(%rip), %rax
	movq	%rax, 24(%rax)
	movq	zz_hold(%rip), %rcx
	movq	%rax, 16(%rcx)
	movq	zz_hold(%rip), %rcx
	movq	%rax, 8(%rcx)
	movq	zz_hold(%rip), %rcx
	movq	%rax, (%rcx)
	movq	%rax, xx_link(%rip)
	movq	%rax, zz_res(%rip)
	movq	-72(%rbp), %rax
	movq	%rax, zz_hold(%rip)
	testq	%rax, %rax
	je	.LBB1_247
# BB#245:
	cmpq	$0, zz_res(%rip)
	je	.LBB1_247
# BB#246:
	movq	zz_hold(%rip), %rax
	movq	(%rax), %rax
	movq	%rax, zz_tmp(%rip)
	movq	zz_res(%rip), %rax
	movq	(%rax), %rax
	movq	zz_hold(%rip), %rcx
	movq	%rax, (%rcx)
	movq	zz_hold(%rip), %rax
	movq	zz_res(%rip), %rcx
	movq	(%rcx), %rcx
	movq	%rax, 8(%rcx)
	movq	zz_tmp(%rip), %rax
	movq	zz_res(%rip), %rcx
	movq	%rax, (%rcx)
	movq	zz_res(%rip), %rax
	movq	zz_tmp(%rip), %rcx
	movq	%rax, 8(%rcx)
.LBB1_247:
	movq	xx_link(%rip), %rax
	movq	%rax, zz_res(%rip)
	movq	-80(%rbp), %rax
	movq	%rax, zz_hold(%rip)
	testq	%rax, %rax
	je	.LBB1_250
# BB#248:
	cmpq	$0, zz_res(%rip)
	je	.LBB1_250
# BB#249:
	movq	zz_hold(%rip), %rax
	movq	16(%rax), %rax
	movq	%rax, zz_tmp(%rip)
	movq	zz_res(%rip), %rax
	movq	16(%rax), %rax
	movq	zz_hold(%rip), %rcx
	movq	%rax, 16(%rcx)
	movq	zz_hold(%rip), %rax
	movq	zz_res(%rip), %rcx
	movq	16(%rcx), %rcx
	movq	%rax, 24(%rcx)
	movq	zz_tmp(%rip), %rax
	movq	zz_res(%rip), %rcx
	movq	%rax, 16(%rcx)
	movq	zz_res(%rip), %rax
	movq	zz_tmp(%rip), %rcx
	movq	%rax, 24(%rcx)
.LBB1_250:
	movq	-32(%rbp), %rax
	movl	28(%rax), %edx
	leaq	-64(%rbp), %rdi
	movl	$.L.str.18, %esi
	xorl	%eax, %eax
	callq	sprintf
	movzbl	zz_lengths+10(%rip), %eax
	movl	%eax, zz_size(%rip)
	movb	$1, %al
	testb	%al, %al
	jne	.LBB1_252
# BB#251:
	movq	no_fpos(%rip), %r8
	movl	$1, %edi
	movl	$1, %esi
	movl	$.L.str.14, %edx
	movl	$1, %ecx
	xorl	%eax, %eax
	callq	Error
	jmp	.LBB1_255
.LBB1_252:
	movslq	zz_size(%rip), %rax
	cmpq	$0, zz_free(,%rax,8)
	je	.LBB1_253
# BB#254:
	movslq	zz_size(%rip), %rax
	movq	zz_free(,%rax,8), %rax
	movq	%rax, zz_hold(%rip)
	movq	(%rax), %rax
	movslq	zz_size(%rip), %rcx
	movq	%rax, zz_free(,%rcx,8)
	jmp	.LBB1_255
.LBB1_253:
	movl	zz_size(%rip), %edi
	movq	no_fpos(%rip), %rsi
	callq	GetMemory
	movq	%rax, zz_hold(%rip)
.LBB1_255:
	movq	zz_hold(%rip), %rax
	movb	$10, 32(%rax)
	movq	zz_hold(%rip), %rax
	movq	%rax, 24(%rax)
	movq	zz_hold(%rip), %rcx
	movq	%rax, 16(%rcx)
	movq	zz_hold(%rip), %rcx
	movq	%rax, 8(%rcx)
	movq	zz_hold(%rip), %rcx
	movq	%rax, (%rcx)
	movq	%rax, -72(%rbp)
	movq	-152(%rbp), %rcx
	movq	%rcx, 80(%rax)
	movzbl	zz_lengths(%rip), %eax
	movl	%eax, zz_size(%rip)
	movb	$1, %al
	testb	%al, %al
	jne	.LBB1_257
# BB#256:
	movq	no_fpos(%rip), %r8
	movl	$1, %edi
	movl	$1, %esi
	movl	$.L.str.14, %edx
	movl	$1, %ecx
	xorl	%eax, %eax
	callq	Error
	jmp	.LBB1_260
.LBB1_257:
	movslq	zz_size(%rip), %rax
	cmpq	$0, zz_free(,%rax,8)
	je	.LBB1_258
# BB#259:
	movslq	zz_size(%rip), %rax
	movq	zz_free(,%rax,8), %rax
	movq	%rax, zz_hold(%rip)
	movq	(%rax), %rax
	movslq	zz_size(%rip), %rcx
	movq	%rax, zz_free(,%rcx,8)
	jmp	.LBB1_260
.LBB1_258:
	movl	zz_size(%rip), %edi
	movq	no_fpos(%rip), %rsi
	callq	GetMemory
	movq	%rax, zz_hold(%rip)
.LBB1_260:
	movq	zz_hold(%rip), %rax
	movb	$0, 32(%rax)
	movq	zz_hold(%rip), %rax
	movq	%rax, 24(%rax)
	movq	zz_hold(%rip), %rcx
	movq	%rax, 16(%rcx)
	movq	zz_hold(%rip), %rcx
	movq	%rax, 8(%rcx)
	movq	zz_hold(%rip), %rcx
	movq	%rax, (%rcx)
	movq	%rax, xx_link(%rip)
	movq	%rax, zz_res(%rip)
	movq	current_moment(%rip), %rax
	movq	%rax, zz_hold(%rip)
	testq	%rax, %rax
	je	.LBB1_263
# BB#261:
	cmpq	$0, zz_res(%rip)
	je	.LBB1_263
# BB#262:
	movq	zz_hold(%rip), %rax
	movq	(%rax), %rax
	movq	%rax, zz_tmp(%rip)
	movq	zz_res(%rip), %rax
	movq	(%rax), %rax
	movq	zz_hold(%rip), %rcx
	movq	%rax, (%rcx)
	movq	zz_hold(%rip), %rax
	movq	zz_res(%rip), %rcx
	movq	(%rcx), %rcx
	movq	%rax, 8(%rcx)
	movq	zz_tmp(%rip), %rax
	movq	zz_res(%rip), %rcx
	movq	%rax, (%rcx)
	movq	zz_res(%rip), %rax
	movq	zz_tmp(%rip), %rcx
	movq	%rax, 8(%rcx)
.LBB1_263:
	movq	xx_link(%rip), %rax
	movq	%rax, zz_res(%rip)
	movq	-72(%rbp), %rax
	movq	%rax, zz_hold(%rip)
	testq	%rax, %rax
	je	.LBB1_266
# BB#264:
	cmpq	$0, zz_res(%rip)
	je	.LBB1_266
# BB#265:
	movq	zz_hold(%rip), %rax
	movq	16(%rax), %rax
	movq	%rax, zz_tmp(%rip)
	movq	zz_res(%rip), %rax
	movq	16(%rax), %rax
	movq	zz_hold(%rip), %rcx
	movq	%rax, 16(%rcx)
	movq	zz_hold(%rip), %rax
	movq	zz_res(%rip), %rcx
	movq	16(%rcx), %rcx
	movq	%rax, 24(%rcx)
	movq	zz_tmp(%rip), %rax
	movq	zz_res(%rip), %rcx
	movq	%rax, 16(%rcx)
	movq	zz_res(%rip), %rax
	movq	zz_tmp(%rip), %rcx
	movq	%rax, 24(%rcx)
.LBB1_266:
	movq	no_fpos(%rip), %rdx
	leaq	-64(%rbp), %rsi
	movl	$11, %edi
	callq	MakeWord
	movq	%rax, -80(%rbp)
	movzbl	zz_lengths(%rip), %eax
	movl	%eax, zz_size(%rip)
	movb	$1, %al
	testb	%al, %al
	jne	.LBB1_268
# BB#267:
	movq	no_fpos(%rip), %r8
	movl	$1, %edi
	movl	$1, %esi
	movl	$.L.str.14, %edx
	movl	$1, %ecx
	xorl	%eax, %eax
	callq	Error
	jmp	.LBB1_271
.LBB1_268:
	movslq	zz_size(%rip), %rax
	cmpq	$0, zz_free(,%rax,8)
	je	.LBB1_269
# BB#270:
	movslq	zz_size(%rip), %rax
	movq	zz_free(,%rax,8), %rax
	movq	%rax, zz_hold(%rip)
	movq	(%rax), %rax
	movslq	zz_size(%rip), %rcx
	movq	%rax, zz_free(,%rcx,8)
	jmp	.LBB1_271
.LBB1_269:
	movl	zz_size(%rip), %edi
	movq	no_fpos(%rip), %rsi
	callq	GetMemory
	movq	%rax, zz_hold(%rip)
.LBB1_271:
	movq	zz_hold(%rip), %rax
	movb	$0, 32(%rax)
	movq	zz_hold(%rip), %rax
	movq	%rax, 24(%rax)
	movq	zz_hold(%rip), %rcx
	movq	%rax, 16(%rcx)
	movq	zz_hold(%rip), %rcx
	movq	%rax, 8(%rcx)
	movq	zz_hold(%rip), %rcx
	movq	%rax, (%rcx)
	movq	%rax, xx_link(%rip)
	movq	%rax, zz_res(%rip)
	movq	-72(%rbp), %rax
	movq	%rax, zz_hold(%rip)
	testq	%rax, %rax
	je	.LBB1_274
# BB#272:
	cmpq	$0, zz_res(%rip)
	je	.LBB1_274
# BB#273:
	movq	zz_hold(%rip), %rax
	movq	(%rax), %rax
	movq	%rax, zz_tmp(%rip)
	movq	zz_res(%rip), %rax
	movq	(%rax), %rax
	movq	zz_hold(%rip), %rcx
	movq	%rax, (%rcx)
	movq	zz_hold(%rip), %rax
	movq	zz_res(%rip), %rcx
	movq	(%rcx), %rcx
	movq	%rax, 8(%rcx)
	movq	zz_tmp(%rip), %rax
	movq	zz_res(%rip), %rcx
	movq	%rax, (%rcx)
	movq	zz_res(%rip), %rax
	movq	zz_tmp(%rip), %rcx
	movq	%rax, 8(%rcx)
.LBB1_274:
	movq	xx_link(%rip), %rax
	movq	%rax, zz_res(%rip)
	movq	-80(%rbp), %rax
	movq	%rax, zz_hold(%rip)
	testq	%rax, %rax
	je	.LBB1_277
# BB#275:
	cmpq	$0, zz_res(%rip)
	je	.LBB1_277
# BB#276:
	movq	zz_hold(%rip), %rax
	movq	16(%rax), %rax
	movq	%rax, zz_tmp(%rip)
	movq	zz_res(%rip), %rax
	movq	16(%rax), %rax
	movq	zz_hold(%rip), %rcx
	movq	%rax, 16(%rcx)
	movq	zz_hold(%rip), %rax
	movq	zz_res(%rip), %rcx
	movq	16(%rcx), %rcx
	movq	%rax, 24(%rcx)
	movq	zz_tmp(%rip), %rax
	movq	zz_res(%rip), %rcx
	movq	%rax, 16(%rcx)
	movq	zz_res(%rip), %rax
	movq	zz_tmp(%rip), %rcx
	movq	%rax, 24(%rcx)
.LBB1_277:
	movq	-32(%rbp), %rax
	movl	32(%rax), %edx
	leaq	-64(%rbp), %rdi
	movl	$.L.str.18, %esi
	xorl	%eax, %eax
	callq	sprintf
	movzbl	zz_lengths+10(%rip), %eax
	movl	%eax, zz_size(%rip)
	movb	$1, %al
	testb	%al, %al
	jne	.LBB1_279
# BB#278:
	movq	no_fpos(%rip), %r8
	movl	$1, %edi
	movl	$1, %esi
	movl	$.L.str.14, %edx
	movl	$1, %ecx
	xorl	%eax, %eax
	callq	Error
	jmp	.LBB1_282
.LBB1_279:
	movslq	zz_size(%rip), %rax
	cmpq	$0, zz_free(,%rax,8)
	je	.LBB1_280
# BB#281:
	movslq	zz_size(%rip), %rax
	movq	zz_free(,%rax,8), %rax
	movq	%rax, zz_hold(%rip)
	movq	(%rax), %rax
	movslq	zz_size(%rip), %rcx
	movq	%rax, zz_free(,%rcx,8)
	jmp	.LBB1_282
.LBB1_280:
	movl	zz_size(%rip), %edi
	movq	no_fpos(%rip), %rsi
	callq	GetMemory
	movq	%rax, zz_hold(%rip)
.LBB1_282:
	movq	zz_hold(%rip), %rax
	movb	$10, 32(%rax)
	movq	zz_hold(%rip), %rax
	movq	%rax, 24(%rax)
	movq	zz_hold(%rip), %rcx
	movq	%rax, 16(%rcx)
	movq	zz_hold(%rip), %rcx
	movq	%rax, 8(%rcx)
	movq	zz_hold(%rip), %rcx
	movq	%rax, (%rcx)
	movq	%rax, -72(%rbp)
	movq	-184(%rbp), %rcx
	movq	%rcx, 80(%rax)
	movzbl	zz_lengths(%rip), %eax
	movl	%eax, zz_size(%rip)
	movb	$1, %al
	testb	%al, %al
	jne	.LBB1_284
# BB#283:
	movq	no_fpos(%rip), %r8
	movl	$1, %edi
	movl	$1, %esi
	movl	$.L.str.14, %edx
	movl	$1, %ecx
	xorl	%eax, %eax
	callq	Error
	jmp	.LBB1_287
.LBB1_284:
	movslq	zz_size(%rip), %rax
	cmpq	$0, zz_free(,%rax,8)
	je	.LBB1_285
# BB#286:
	movslq	zz_size(%rip), %rax
	movq	zz_free(,%rax,8), %rax
	movq	%rax, zz_hold(%rip)
	movq	(%rax), %rax
	movslq	zz_size(%rip), %rcx
	movq	%rax, zz_free(,%rcx,8)
	jmp	.LBB1_287
.LBB1_285:
	movl	zz_size(%rip), %edi
	movq	no_fpos(%rip), %rsi
	callq	GetMemory
	movq	%rax, zz_hold(%rip)
.LBB1_287:
	movq	zz_hold(%rip), %rax
	movb	$0, 32(%rax)
	movq	zz_hold(%rip), %rax
	movq	%rax, 24(%rax)
	movq	zz_hold(%rip), %rcx
	movq	%rax, 16(%rcx)
	movq	zz_hold(%rip), %rcx
	movq	%rax, 8(%rcx)
	movq	zz_hold(%rip), %rcx
	movq	%rax, (%rcx)
	movq	%rax, xx_link(%rip)
	movq	%rax, zz_res(%rip)
	movq	current_moment(%rip), %rax
	movq	%rax, zz_hold(%rip)
	testq	%rax, %rax
	je	.LBB1_290
# BB#288:
	cmpq	$0, zz_res(%rip)
	je	.LBB1_290
# BB#289:
	movq	zz_hold(%rip), %rax
	movq	(%rax), %rax
	movq	%rax, zz_tmp(%rip)
	movq	zz_res(%rip), %rax
	movq	(%rax), %rax
	movq	zz_hold(%rip), %rcx
	movq	%rax, (%rcx)
	movq	zz_hold(%rip), %rax
	movq	zz_res(%rip), %rcx
	movq	(%rcx), %rcx
	movq	%rax, 8(%rcx)
	movq	zz_tmp(%rip), %rax
	movq	zz_res(%rip), %rcx
	movq	%rax, (%rcx)
	movq	zz_res(%rip), %rax
	movq	zz_tmp(%rip), %rcx
	movq	%rax, 8(%rcx)
.LBB1_290:
	movq	xx_link(%rip), %rax
	movq	%rax, zz_res(%rip)
	movq	-72(%rbp), %rax
	movq	%rax, zz_hold(%rip)
	testq	%rax, %rax
	je	.LBB1_293
# BB#291:
	cmpq	$0, zz_res(%rip)
	je	.LBB1_293
# BB#292:
	movq	zz_hold(%rip), %rax
	movq	16(%rax), %rax
	movq	%rax, zz_tmp(%rip)
	movq	zz_res(%rip), %rax
	movq	16(%rax), %rax
	movq	zz_hold(%rip), %rcx
	movq	%rax, 16(%rcx)
	movq	zz_hold(%rip), %rax
	movq	zz_res(%rip), %rcx
	movq	16(%rcx), %rcx
	movq	%rax, 24(%rcx)
	movq	zz_tmp(%rip), %rax
	movq	zz_res(%rip), %rcx
	movq	%rax, 16(%rcx)
	movq	zz_res(%rip), %rax
	movq	zz_tmp(%rip), %rcx
	movq	%rax, 24(%rcx)
.LBB1_293:
	movq	no_fpos(%rip), %rdx
	leaq	-64(%rbp), %rsi
	movl	$11, %edi
	callq	MakeWord
	movq	%rax, -80(%rbp)
	movzbl	zz_lengths(%rip), %eax
	movl	%eax, zz_size(%rip)
	movb	$1, %al
	testb	%al, %al
	jne	.LBB1_295
# BB#294:
	movq	no_fpos(%rip), %r8
	movl	$1, %edi
	movl	$1, %esi
	movl	$.L.str.14, %edx
	movl	$1, %ecx
	xorl	%eax, %eax
	callq	Error
	jmp	.LBB1_298
.LBB1_295:
	movslq	zz_size(%rip), %rax
	cmpq	$0, zz_free(,%rax,8)
	je	.LBB1_296
# BB#297:
	movslq	zz_size(%rip), %rax
	movq	zz_free(,%rax,8), %rax
	movq	%rax, zz_hold(%rip)
	movq	(%rax), %rax
	movslq	zz_size(%rip), %rcx
	movq	%rax, zz_free(,%rcx,8)
	jmp	.LBB1_298
.LBB1_296:
	movl	zz_size(%rip), %edi
	movq	no_fpos(%rip), %rsi
	callq	GetMemory
	movq	%rax, zz_hold(%rip)
.LBB1_298:
	movq	zz_hold(%rip), %rax
	movb	$0, 32(%rax)
	movq	zz_hold(%rip), %rax
	movq	%rax, 24(%rax)
	movq	zz_hold(%rip), %rcx
	movq	%rax, 16(%rcx)
	movq	zz_hold(%rip), %rcx
	movq	%rax, 8(%rcx)
	movq	zz_hold(%rip), %rcx
	movq	%rax, (%rcx)
	movq	%rax, xx_link(%rip)
	movq	%rax, zz_res(%rip)
	movq	-72(%rbp), %rax
	movq	%rax, zz_hold(%rip)
	testq	%rax, %rax
	je	.LBB1_301
# BB#299:
	cmpq	$0, zz_res(%rip)
	je	.LBB1_301
# BB#300:
	movq	zz_hold(%rip), %rax
	movq	(%rax), %rax
	movq	%rax, zz_tmp(%rip)
	movq	zz_res(%rip), %rax
	movq	(%rax), %rax
	movq	zz_hold(%rip), %rcx
	movq	%rax, (%rcx)
	movq	zz_hold(%rip), %rax
	movq	zz_res(%rip), %rcx
	movq	(%rcx), %rcx
	movq	%rax, 8(%rcx)
	movq	zz_tmp(%rip), %rax
	movq	zz_res(%rip), %rcx
	movq	%rax, (%rcx)
	movq	zz_res(%rip), %rax
	movq	zz_tmp(%rip), %rcx
	movq	%rax, 8(%rcx)
.LBB1_301:
	movq	xx_link(%rip), %rax
	movq	%rax, zz_res(%rip)
	movq	-80(%rbp), %rax
	movq	%rax, zz_hold(%rip)
	testq	%rax, %rax
	je	.LBB1_304
# BB#302:
	cmpq	$0, zz_res(%rip)
	je	.LBB1_304
# BB#303:
	movq	zz_hold(%rip), %rax
	movq	16(%rax), %rax
	movq	%rax, zz_tmp(%rip)
	movq	zz_res(%rip), %rax
	movq	16(%rax), %rax
	movq	zz_hold(%rip), %rcx
	movq	%rax, 16(%rcx)
	movq	zz_hold(%rip), %rax
	movq	zz_res(%rip), %rcx
	movq	16(%rcx), %rcx
	movq	%rax, 24(%rcx)
	movq	zz_tmp(%rip), %rax
	movq	zz_res(%rip), %rcx
	movq	%rax, 16(%rcx)
	movq	zz_res(%rip), %rax
	movq	zz_tmp(%rip), %rcx
	movq	%rax, 24(%rcx)
.LBB1_304:
	movzbl	zz_lengths+82(%rip), %eax
	movl	%eax, zz_size(%rip)
	movb	$1, %al
	testb	%al, %al
	jne	.LBB1_306
# BB#305:
	movq	no_fpos(%rip), %r8
	movl	$1, %edi
	movl	$1, %esi
	movl	$.L.str.14, %edx
	movl	$1, %ecx
	xorl	%eax, %eax
	callq	Error
	jmp	.LBB1_309
.LBB1_306:
	movslq	zz_size(%rip), %rax
	cmpq	$0, zz_free(,%rax,8)
	je	.LBB1_307
# BB#308:
	movslq	zz_size(%rip), %rax
	movq	zz_free(,%rax,8), %rax
	movq	%rax, zz_hold(%rip)
	movq	(%rax), %rax
	movslq	zz_size(%rip), %rcx
	movq	%rax, zz_free(,%rcx,8)
	jmp	.LBB1_309
.LBB1_307:
	movl	zz_size(%rip), %edi
	movq	no_fpos(%rip), %rsi
	callq	GetMemory
	movq	%rax, zz_hold(%rip)
.LBB1_309:
	movq	zz_hold(%rip), %rax
	movb	$82, 32(%rax)
	movq	zz_hold(%rip), %rdi
	movq	%rdi, 24(%rdi)
	movq	zz_hold(%rip), %rax
	movq	%rdi, 16(%rax)
	movq	zz_hold(%rip), %rax
	movq	%rdi, 8(%rax)
	movq	zz_hold(%rip), %rax
	movq	%rdi, (%rax)
	movq	%rdi, -96(%rbp)
	movq	current_moment(%rip), %rsi
	callq	AttachEnv
	addq	$192, %rsp
	popq	%rbx
	popq	%r14
	popq	%rbp
	retq
.Lfunc_end1:
	.size	InitTime, .Lfunc_end1-InitTime
	.cfi_endproc

	.globl	StartMoment
	.align	16, 0x90
	.type	StartMoment,@function
StartMoment:                            # @StartMoment
	.cfi_startproc
# BB#0:
	pushq	%rbp
.Ltmp8:
	.cfi_def_cfa_offset 16
.Ltmp9:
	.cfi_offset %rbp, -16
	movq	%rsp, %rbp
.Ltmp10:
	.cfi_def_cfa_register %rbp
	subq	$16, %rsp
	cmpq	$0, current_moment(%rip)
	jne	.LBB2_2
# BB#1:
	movq	no_fpos(%rip), %r8
	movl	$1, %edi
	movl	$2, %esi
	movl	$.L.str.19, %edx
	xorl	%ecx, %ecx
	movl	$.L.str.20, %r9d
	xorl	%eax, %eax
	callq	Error
.LBB2_2:
	movq	current_moment(%rip), %rdi
	movq	no_fpos(%rip), %rsi
	callq	CopyObject
	movq	%rax, -8(%rbp)
	addq	$16, %rsp
	popq	%rbp
	retq
.Lfunc_end2:
	.size	StartMoment, .Lfunc_end2-StartMoment
	.cfi_endproc

	.type	MomentSym,@object       # @MomentSym
	.bss
	.globl	MomentSym
	.align	8
MomentSym:
	.quad	0
	.size	MomentSym, 8

	.type	time_string,@object     # @time_string
	.local	time_string
	.comm	time_string,30,16
	.type	.L.str,@object          # @.str
	.section	.rodata.str1.1,"aMS",@progbits,1
.L.str:
	.asciz	"@Moment"
	.size	.L.str, 8

	.type	.L.str.1,@object        # @.str.1
.L.str.1:
	.zero	1
	.size	.L.str.1, 1

	.type	.L.str.2,@object        # @.str.2
.L.str.2:
	.asciz	"@Tag"
	.size	.L.str.2, 5

	.type	.L.str.3,@object        # @.str.3
.L.str.3:
	.asciz	"@Second"
	.size	.L.str.3, 8

	.type	.L.str.4,@object        # @.str.4
.L.str.4:
	.asciz	"@Minute"
	.size	.L.str.4, 8

	.type	.L.str.5,@object        # @.str.5
.L.str.5:
	.asciz	"@Hour"
	.size	.L.str.5, 6

	.type	.L.str.6,@object        # @.str.6
.L.str.6:
	.asciz	"@Day"
	.size	.L.str.6, 5

	.type	.L.str.7,@object        # @.str.7
.L.str.7:
	.asciz	"@Month"
	.size	.L.str.7, 7

	.type	.L.str.8,@object        # @.str.8
.L.str.8:
	.asciz	"@Year"
	.size	.L.str.8, 6

	.type	.L.str.9,@object        # @.str.9
.L.str.9:
	.asciz	"@Century"
	.size	.L.str.9, 9

	.type	.L.str.10,@object       # @.str.10
.L.str.10:
	.asciz	"@WeekDay"
	.size	.L.str.10, 9

	.type	.L.str.11,@object       # @.str.11
.L.str.11:
	.asciz	"@YearDay"
	.size	.L.str.11, 9

	.type	.L.str.12,@object       # @.str.12
.L.str.12:
	.asciz	"@DaylightSaving"
	.size	.L.str.12, 16

	.type	.L.str.13,@object       # @.str.13
.L.str.13:
	.asciz	"unable to obtain the current time"
	.size	.L.str.13, 34

	.type	.L.str.14,@object       # @.str.14
.L.str.14:
	.asciz	"word is too long"
	.size	.L.str.14, 17

	.type	current_moment,@object  # @current_moment
	.local	current_moment
	.comm	current_moment,8,8
	.type	.L.str.15,@object       # @.str.15
.L.str.15:
	.asciz	"%s"
	.size	.L.str.15, 3

	.type	.L.str.16,@object       # @.str.16
.L.str.16:
	.asciz	"now"
	.size	.L.str.16, 4

	.type	.L.str.17,@object       # @.str.17
.L.str.17:
	.asciz	"%.2d"
	.size	.L.str.17, 5

	.type	.L.str.18,@object       # @.str.18
.L.str.18:
	.asciz	"%d"
	.size	.L.str.18, 3

	.type	.L.str.19,@object       # @.str.19
.L.str.19:
	.asciz	"assert failed in %s"
	.size	.L.str.19, 20

	.type	.L.str.20,@object       # @.str.20
.L.str.20:
	.asciz	"StartMoment: current_moment == nilobj!"
	.size	.L.str.20, 39


	.ident	"Ubuntu clang version 3.7.0-2ubuntu1 (tags/RELEASE_370/final) (based on LLVM 3.7.0)"
	.section	".note.GNU-stack","",@progbits
